	.text
	.file	"lib_mem.c"
	.globl	mem_benchmark_0         # -- Begin function mem_benchmark_0
	.p2align	4, 0x90
	.type	mem_benchmark_0,@function
mem_benchmark_0:                        # @mem_benchmark_0
	.cfi_startproc
# %bb.0:
	pushq	%rbp
	.cfi_def_cfa_offset 16
	.cfi_offset %rbp, -16
	movq	%rsp, %rbp
	.cfi_def_cfa_register %rbp
	cmpb	$1, mem_benchmark_rerun(%rip)
	jne	.LBB0_3
# %bb.1:
	movq	mem_benchmark_0.addr_save(%rip), %rax
	cmpq	(%rsi), %rax
	je	.LBB0_2
.LBB0_3:
	leaq	16(%rsi), %rax
	jmp	.LBB0_4
.LBB0_2:
	movl	$mem_benchmark_0.sp0, %eax
.LBB0_4:
	movq	(%rax), %rax
	testq	%rdi, %rdi
	je	.LBB0_6
	.p2align	4, 0x90
.LBB0_5:                                # =>This Inner Loop Header: Depth=1
	movq	(%rax), %rax
	movq	(%rax), %rax
	movq	(%rax), %rax
	movq	(%rax), %rax
	movq	(%rax), %rax
	movq	(%rax), %rax
	movq	(%rax), %rax
	movq	(%rax), %rax
	movq	(%rax), %rax
	movq	(%rax), %rax
	movq	(%rax), %rax
	movq	(%rax), %rax
	movq	(%rax), %rax
	movq	(%rax), %rax
	movq	(%rax), %rax
	movq	(%rax), %rax
	movq	(%rax), %rax
	movq	(%rax), %rax
	movq	(%rax), %rax
	movq	(%rax), %rax
	movq	(%rax), %rax
	movq	(%rax), %rax
	movq	(%rax), %rax
	movq	(%rax), %rax
	movq	(%rax), %rax
	movq	(%rax), %rax
	movq	(%rax), %rax
	movq	(%rax), %rax
	movq	(%rax), %rax
	movq	(%rax), %rax
	movq	(%rax), %rax
	movq	(%rax), %rax
	movq	(%rax), %rax
	movq	(%rax), %rax
	movq	(%rax), %rax
	movq	(%rax), %rax
	movq	(%rax), %rax
	movq	(%rax), %rax
	movq	(%rax), %rax
	movq	(%rax), %rax
	movq	(%rax), %rax
	movq	(%rax), %rax
	movq	(%rax), %rax
	movq	(%rax), %rax
	movq	(%rax), %rax
	movq	(%rax), %rax
	movq	(%rax), %rax
	movq	(%rax), %rax
	movq	(%rax), %rax
	movq	(%rax), %rax
	movq	(%rax), %rax
	movq	(%rax), %rax
	movq	(%rax), %rax
	movq	(%rax), %rax
	movq	(%rax), %rax
	movq	(%rax), %rax
	movq	(%rax), %rax
	movq	(%rax), %rax
	movq	(%rax), %rax
	movq	(%rax), %rax
	movq	(%rax), %rax
	movq	(%rax), %rax
	movq	(%rax), %rax
	movq	(%rax), %rax
	movq	(%rax), %rax
	movq	(%rax), %rax
	movq	(%rax), %rax
	movq	(%rax), %rax
	movq	(%rax), %rax
	movq	(%rax), %rax
	movq	(%rax), %rax
	movq	(%rax), %rax
	movq	(%rax), %rax
	movq	(%rax), %rax
	movq	(%rax), %rax
	movq	(%rax), %rax
	movq	(%rax), %rax
	movq	(%rax), %rax
	movq	(%rax), %rax
	movq	(%rax), %rax
	movq	(%rax), %rax
	movq	(%rax), %rax
	movq	(%rax), %rax
	movq	(%rax), %rax
	movq	(%rax), %rax
	movq	(%rax), %rax
	movq	(%rax), %rax
	movq	(%rax), %rax
	movq	(%rax), %rax
	movq	(%rax), %rax
	movq	(%rax), %rax
	movq	(%rax), %rax
	movq	(%rax), %rax
	movq	(%rax), %rax
	movq	(%rax), %rax
	movq	(%rax), %rax
	movq	(%rax), %rax
	movq	(%rax), %rax
	movq	(%rax), %rax
	movq	(%rax), %rax
	addq	$-1, %rdi
	jne	.LBB0_5
.LBB0_6:
	movq	%rax, mem_benchmark_0.sp0(%rip)
	movq	(%rsi), %rax
	movq	%rax, mem_benchmark_0.addr_save(%rip)
	movb	$1, mem_benchmark_rerun(%rip)
	popq	%rbp
	.cfi_def_cfa %rsp, 8
	retq
.Lfunc_end0:
	.size	mem_benchmark_0, .Lfunc_end0-mem_benchmark_0
	.cfi_endproc
                                        # -- End function
	.globl	mem_benchmark_1         # -- Begin function mem_benchmark_1
	.p2align	4, 0x90
	.type	mem_benchmark_1,@function
mem_benchmark_1:                        # @mem_benchmark_1
	.cfi_startproc
# %bb.0:
	pushq	%rbp
	.cfi_def_cfa_offset 16
	.cfi_offset %rbp, -16
	movq	%rsp, %rbp
	.cfi_def_cfa_register %rbp
	cmpb	$1, mem_benchmark_rerun(%rip)
	jne	.LBB1_3
# %bb.1:
	movq	mem_benchmark_1.addr_save(%rip), %rax
	leaq	16(%rsi), %rcx
	cmpq	(%rsi), %rax
	movl	$mem_benchmark_1.sp0, %eax
	cmovneq	%rcx, %rax
	movq	(%rax), %rax
	jne	.LBB1_4
# %bb.2:
	movl	$mem_benchmark_1.sp1, %ecx
	jmp	.LBB1_5
.LBB1_3:
	movq	16(%rsi), %rax
.LBB1_4:
	leaq	24(%rsi), %rcx
.LBB1_5:
	movq	(%rcx), %rcx
	testq	%rdi, %rdi
	je	.LBB1_7
	.p2align	4, 0x90
.LBB1_6:                                # =>This Inner Loop Header: Depth=1
	movq	(%rax), %rax
	movq	(%rcx), %rcx
	movq	(%rax), %rax
	movq	(%rcx), %rcx
	movq	(%rax), %rax
	movq	(%rcx), %rcx
	movq	(%rax), %rax
	movq	(%rcx), %rcx
	movq	(%rax), %rax
	movq	(%rcx), %rcx
	movq	(%rax), %rax
	movq	(%rcx), %rcx
	movq	(%rax), %rax
	movq	(%rcx), %rcx
	movq	(%rax), %rax
	movq	(%rcx), %rcx
	movq	(%rax), %rax
	movq	(%rcx), %rcx
	movq	(%rax), %rax
	movq	(%rcx), %rcx
	movq	(%rax), %rax
	movq	(%rcx), %rcx
	movq	(%rax), %rax
	movq	(%rcx), %rcx
	movq	(%rax), %rax
	movq	(%rcx), %rcx
	movq	(%rax), %rax
	movq	(%rcx), %rcx
	movq	(%rax), %rax
	movq	(%rcx), %rcx
	movq	(%rax), %rax
	movq	(%rcx), %rcx
	movq	(%rax), %rax
	movq	(%rcx), %rcx
	movq	(%rax), %rax
	movq	(%rcx), %rcx
	movq	(%rax), %rax
	movq	(%rcx), %rcx
	movq	(%rax), %rax
	movq	(%rcx), %rcx
	movq	(%rax), %rax
	movq	(%rcx), %rcx
	movq	(%rax), %rax
	movq	(%rcx), %rcx
	movq	(%rax), %rax
	movq	(%rcx), %rcx
	movq	(%rax), %rax
	movq	(%rcx), %rcx
	movq	(%rax), %rax
	movq	(%rcx), %rcx
	movq	(%rax), %rax
	movq	(%rcx), %rcx
	movq	(%rax), %rax
	movq	(%rcx), %rcx
	movq	(%rax), %rax
	movq	(%rcx), %rcx
	movq	(%rax), %rax
	movq	(%rcx), %rcx
	movq	(%rax), %rax
	movq	(%rcx), %rcx
	movq	(%rax), %rax
	movq	(%rcx), %rcx
	movq	(%rax), %rax
	movq	(%rcx), %rcx
	movq	(%rax), %rax
	movq	(%rcx), %rcx
	movq	(%rax), %rax
	movq	(%rcx), %rcx
	movq	(%rax), %rax
	movq	(%rcx), %rcx
	movq	(%rax), %rax
	movq	(%rcx), %rcx
	movq	(%rax), %rax
	movq	(%rcx), %rcx
	movq	(%rax), %rax
	movq	(%rcx), %rcx
	movq	(%rax), %rax
	movq	(%rcx), %rcx
	movq	(%rax), %rax
	movq	(%rcx), %rcx
	movq	(%rax), %rax
	movq	(%rcx), %rcx
	movq	(%rax), %rax
	movq	(%rcx), %rcx
	movq	(%rax), %rax
	movq	(%rcx), %rcx
	movq	(%rax), %rax
	movq	(%rcx), %rcx
	movq	(%rax), %rax
	movq	(%rcx), %rcx
	movq	(%rax), %rax
	movq	(%rcx), %rcx
	movq	(%rax), %rax
	movq	(%rcx), %rcx
	movq	(%rax), %rax
	movq	(%rcx), %rcx
	movq	(%rax), %rax
	movq	(%rcx), %rcx
	movq	(%rax), %rax
	movq	(%rcx), %rcx
	movq	(%rax), %rax
	movq	(%rcx), %rcx
	movq	(%rax), %rax
	movq	(%rcx), %rcx
	movq	(%rax), %rax
	movq	(%rcx), %rcx
	movq	(%rax), %rax
	movq	(%rcx), %rcx
	movq	(%rax), %rax
	movq	(%rcx), %rcx
	movq	(%rax), %rax
	movq	(%rcx), %rcx
	movq	(%rax), %rax
	movq	(%rcx), %rcx
	movq	(%rax), %rax
	movq	(%rcx), %rcx
	movq	(%rax), %rax
	movq	(%rcx), %rcx
	movq	(%rax), %rax
	movq	(%rcx), %rcx
	movq	(%rax), %rax
	movq	(%rcx), %rcx
	movq	(%rax), %rax
	movq	(%rcx), %rcx
	movq	(%rax), %rax
	movq	(%rcx), %rcx
	movq	(%rax), %rax
	movq	(%rcx), %rcx
	movq	(%rax), %rax
	movq	(%rcx), %rcx
	movq	(%rax), %rax
	movq	(%rcx), %rcx
	movq	(%rax), %rax
	movq	(%rcx), %rcx
	movq	(%rax), %rax
	movq	(%rcx), %rcx
	movq	(%rax), %rax
	movq	(%rcx), %rcx
	movq	(%rax), %rax
	movq	(%rcx), %rcx
	movq	(%rax), %rax
	movq	(%rcx), %rcx
	movq	(%rax), %rax
	movq	(%rcx), %rcx
	movq	(%rax), %rax
	movq	(%rcx), %rcx
	movq	(%rax), %rax
	movq	(%rcx), %rcx
	movq	(%rax), %rax
	movq	(%rcx), %rcx
	movq	(%rax), %rax
	movq	(%rcx), %rcx
	movq	(%rax), %rax
	movq	(%rcx), %rcx
	movq	(%rax), %rax
	movq	(%rcx), %rcx
	movq	(%rax), %rax
	movq	(%rcx), %rcx
	movq	(%rax), %rax
	movq	(%rcx), %rcx
	movq	(%rax), %rax
	movq	(%rcx), %rcx
	movq	(%rax), %rax
	movq	(%rcx), %rcx
	movq	(%rax), %rax
	movq	(%rcx), %rcx
	movq	(%rax), %rax
	movq	(%rcx), %rcx
	movq	(%rax), %rax
	movq	(%rcx), %rcx
	movq	(%rax), %rax
	movq	(%rcx), %rcx
	movq	(%rax), %rax
	movq	(%rcx), %rcx
	movq	(%rax), %rax
	movq	(%rcx), %rcx
	movq	(%rax), %rax
	movq	(%rcx), %rcx
	movq	(%rax), %rax
	movq	(%rcx), %rcx
	movq	(%rax), %rax
	movq	(%rcx), %rcx
	movq	(%rax), %rax
	movq	(%rcx), %rcx
	movq	(%rax), %rax
	movq	(%rcx), %rcx
	movq	(%rax), %rax
	movq	(%rcx), %rcx
	movq	(%rax), %rax
	movq	(%rcx), %rcx
	movq	(%rax), %rax
	movq	(%rcx), %rcx
	movq	(%rax), %rax
	movq	(%rcx), %rcx
	movq	(%rax), %rax
	movq	(%rcx), %rcx
	movq	(%rax), %rax
	movq	(%rcx), %rcx
	movq	(%rax), %rax
	movq	(%rcx), %rcx
	addq	$-1, %rdi
	jne	.LBB1_6
.LBB1_7:
	movq	%rax, mem_benchmark_1.sp0(%rip)
	movq	%rcx, mem_benchmark_1.sp1(%rip)
	movq	(%rsi), %rax
	movq	%rax, mem_benchmark_1.addr_save(%rip)
	movb	$1, mem_benchmark_rerun(%rip)
	popq	%rbp
	.cfi_def_cfa %rsp, 8
	retq
.Lfunc_end1:
	.size	mem_benchmark_1, .Lfunc_end1-mem_benchmark_1
	.cfi_endproc
                                        # -- End function
	.globl	mem_benchmark_2         # -- Begin function mem_benchmark_2
	.p2align	4, 0x90
	.type	mem_benchmark_2,@function
mem_benchmark_2:                        # @mem_benchmark_2
	.cfi_startproc
# %bb.0:
	pushq	%rbp
	.cfi_def_cfa_offset 16
	.cfi_offset %rbp, -16
	movq	%rsp, %rbp
	.cfi_def_cfa_register %rbp
	cmpb	$1, mem_benchmark_rerun(%rip)
	jne	.LBB2_3
# %bb.1:
	movq	mem_benchmark_2.addr_save(%rip), %rax
	leaq	16(%rsi), %rcx
	leaq	24(%rsi), %rdx
	cmpq	(%rsi), %rax
	movl	$mem_benchmark_2.sp0, %eax
	cmovneq	%rcx, %rax
	movq	(%rax), %rax
	movl	$mem_benchmark_2.sp1, %ecx
	cmovneq	%rdx, %rcx
	movq	(%rcx), %rcx
	jne	.LBB2_4
# %bb.2:
	movl	$mem_benchmark_2.sp2, %edx
	jmp	.LBB2_5
.LBB2_3:
	movq	16(%rsi), %rax
	movq	24(%rsi), %rcx
.LBB2_4:
	leaq	32(%rsi), %rdx
.LBB2_5:
	movq	(%rdx), %rdx
	testq	%rdi, %rdi
	je	.LBB2_7
	.p2align	4, 0x90
.LBB2_6:                                # =>This Inner Loop Header: Depth=1
	movq	(%rax), %rax
	movq	(%rcx), %rcx
	movq	(%rdx), %rdx
	movq	(%rax), %rax
	movq	(%rcx), %rcx
	movq	(%rdx), %rdx
	movq	(%rax), %rax
	movq	(%rcx), %rcx
	movq	(%rdx), %rdx
	movq	(%rax), %rax
	movq	(%rcx), %rcx
	movq	(%rdx), %rdx
	movq	(%rax), %rax
	movq	(%rcx), %rcx
	movq	(%rdx), %rdx
	movq	(%rax), %rax
	movq	(%rcx), %rcx
	movq	(%rdx), %rdx
	movq	(%rax), %rax
	movq	(%rcx), %rcx
	movq	(%rdx), %rdx
	movq	(%rax), %rax
	movq	(%rcx), %rcx
	movq	(%rdx), %rdx
	movq	(%rax), %rax
	movq	(%rcx), %rcx
	movq	(%rdx), %rdx
	movq	(%rax), %rax
	movq	(%rcx), %rcx
	movq	(%rdx), %rdx
	movq	(%rax), %rax
	movq	(%rcx), %rcx
	movq	(%rdx), %rdx
	movq	(%rax), %rax
	movq	(%rcx), %rcx
	movq	(%rdx), %rdx
	movq	(%rax), %rax
	movq	(%rcx), %rcx
	movq	(%rdx), %rdx
	movq	(%rax), %rax
	movq	(%rcx), %rcx
	movq	(%rdx), %rdx
	movq	(%rax), %rax
	movq	(%rcx), %rcx
	movq	(%rdx), %rdx
	movq	(%rax), %rax
	movq	(%rcx), %rcx
	movq	(%rdx), %rdx
	movq	(%rax), %rax
	movq	(%rcx), %rcx
	movq	(%rdx), %rdx
	movq	(%rax), %rax
	movq	(%rcx), %rcx
	movq	(%rdx), %rdx
	movq	(%rax), %rax
	movq	(%rcx), %rcx
	movq	(%rdx), %rdx
	movq	(%rax), %rax
	movq	(%rcx), %rcx
	movq	(%rdx), %rdx
	movq	(%rax), %rax
	movq	(%rcx), %rcx
	movq	(%rdx), %rdx
	movq	(%rax), %rax
	movq	(%rcx), %rcx
	movq	(%rdx), %rdx
	movq	(%rax), %rax
	movq	(%rcx), %rcx
	movq	(%rdx), %rdx
	movq	(%rax), %rax
	movq	(%rcx), %rcx
	movq	(%rdx), %rdx
	movq	(%rax), %rax
	movq	(%rcx), %rcx
	movq	(%rdx), %rdx
	movq	(%rax), %rax
	movq	(%rcx), %rcx
	movq	(%rdx), %rdx
	movq	(%rax), %rax
	movq	(%rcx), %rcx
	movq	(%rdx), %rdx
	movq	(%rax), %rax
	movq	(%rcx), %rcx
	movq	(%rdx), %rdx
	movq	(%rax), %rax
	movq	(%rcx), %rcx
	movq	(%rdx), %rdx
	movq	(%rax), %rax
	movq	(%rcx), %rcx
	movq	(%rdx), %rdx
	movq	(%rax), %rax
	movq	(%rcx), %rcx
	movq	(%rdx), %rdx
	movq	(%rax), %rax
	movq	(%rcx), %rcx
	movq	(%rdx), %rdx
	movq	(%rax), %rax
	movq	(%rcx), %rcx
	movq	(%rdx), %rdx
	movq	(%rax), %rax
	movq	(%rcx), %rcx
	movq	(%rdx), %rdx
	movq	(%rax), %rax
	movq	(%rcx), %rcx
	movq	(%rdx), %rdx
	movq	(%rax), %rax
	movq	(%rcx), %rcx
	movq	(%rdx), %rdx
	movq	(%rax), %rax
	movq	(%rcx), %rcx
	movq	(%rdx), %rdx
	movq	(%rax), %rax
	movq	(%rcx), %rcx
	movq	(%rdx), %rdx
	movq	(%rax), %rax
	movq	(%rcx), %rcx
	movq	(%rdx), %rdx
	movq	(%rax), %rax
	movq	(%rcx), %rcx
	movq	(%rdx), %rdx
	movq	(%rax), %rax
	movq	(%rcx), %rcx
	movq	(%rdx), %rdx
	movq	(%rax), %rax
	movq	(%rcx), %rcx
	movq	(%rdx), %rdx
	movq	(%rax), %rax
	movq	(%rcx), %rcx
	movq	(%rdx), %rdx
	movq	(%rax), %rax
	movq	(%rcx), %rcx
	movq	(%rdx), %rdx
	movq	(%rax), %rax
	movq	(%rcx), %rcx
	movq	(%rdx), %rdx
	movq	(%rax), %rax
	movq	(%rcx), %rcx
	movq	(%rdx), %rdx
	movq	(%rax), %rax
	movq	(%rcx), %rcx
	movq	(%rdx), %rdx
	movq	(%rax), %rax
	movq	(%rcx), %rcx
	movq	(%rdx), %rdx
	movq	(%rax), %rax
	movq	(%rcx), %rcx
	movq	(%rdx), %rdx
	movq	(%rax), %rax
	movq	(%rcx), %rcx
	movq	(%rdx), %rdx
	movq	(%rax), %rax
	movq	(%rcx), %rcx
	movq	(%rdx), %rdx
	movq	(%rax), %rax
	movq	(%rcx), %rcx
	movq	(%rdx), %rdx
	movq	(%rax), %rax
	movq	(%rcx), %rcx
	movq	(%rdx), %rdx
	movq	(%rax), %rax
	movq	(%rcx), %rcx
	movq	(%rdx), %rdx
	movq	(%rax), %rax
	movq	(%rcx), %rcx
	movq	(%rdx), %rdx
	movq	(%rax), %rax
	movq	(%rcx), %rcx
	movq	(%rdx), %rdx
	movq	(%rax), %rax
	movq	(%rcx), %rcx
	movq	(%rdx), %rdx
	movq	(%rax), %rax
	movq	(%rcx), %rcx
	movq	(%rdx), %rdx
	movq	(%rax), %rax
	movq	(%rcx), %rcx
	movq	(%rdx), %rdx
	movq	(%rax), %rax
	movq	(%rcx), %rcx
	movq	(%rdx), %rdx
	movq	(%rax), %rax
	movq	(%rcx), %rcx
	movq	(%rdx), %rdx
	movq	(%rax), %rax
	movq	(%rcx), %rcx
	movq	(%rdx), %rdx
	movq	(%rax), %rax
	movq	(%rcx), %rcx
	movq	(%rdx), %rdx
	movq	(%rax), %rax
	movq	(%rcx), %rcx
	movq	(%rdx), %rdx
	movq	(%rax), %rax
	movq	(%rcx), %rcx
	movq	(%rdx), %rdx
	movq	(%rax), %rax
	movq	(%rcx), %rcx
	movq	(%rdx), %rdx
	movq	(%rax), %rax
	movq	(%rcx), %rcx
	movq	(%rdx), %rdx
	movq	(%rax), %rax
	movq	(%rcx), %rcx
	movq	(%rdx), %rdx
	movq	(%rax), %rax
	movq	(%rcx), %rcx
	movq	(%rdx), %rdx
	movq	(%rax), %rax
	movq	(%rcx), %rcx
	movq	(%rdx), %rdx
	movq	(%rax), %rax
	movq	(%rcx), %rcx
	movq	(%rdx), %rdx
	movq	(%rax), %rax
	movq	(%rcx), %rcx
	movq	(%rdx), %rdx
	movq	(%rax), %rax
	movq	(%rcx), %rcx
	movq	(%rdx), %rdx
	movq	(%rax), %rax
	movq	(%rcx), %rcx
	movq	(%rdx), %rdx
	movq	(%rax), %rax
	movq	(%rcx), %rcx
	movq	(%rdx), %rdx
	movq	(%rax), %rax
	movq	(%rcx), %rcx
	movq	(%rdx), %rdx
	movq	(%rax), %rax
	movq	(%rcx), %rcx
	movq	(%rdx), %rdx
	movq	(%rax), %rax
	movq	(%rcx), %rcx
	movq	(%rdx), %rdx
	movq	(%rax), %rax
	movq	(%rcx), %rcx
	movq	(%rdx), %rdx
	movq	(%rax), %rax
	movq	(%rcx), %rcx
	movq	(%rdx), %rdx
	movq	(%rax), %rax
	movq	(%rcx), %rcx
	movq	(%rdx), %rdx
	movq	(%rax), %rax
	movq	(%rcx), %rcx
	movq	(%rdx), %rdx
	movq	(%rax), %rax
	movq	(%rcx), %rcx
	movq	(%rdx), %rdx
	movq	(%rax), %rax
	movq	(%rcx), %rcx
	movq	(%rdx), %rdx
	movq	(%rax), %rax
	movq	(%rcx), %rcx
	movq	(%rdx), %rdx
	movq	(%rax), %rax
	movq	(%rcx), %rcx
	movq	(%rdx), %rdx
	movq	(%rax), %rax
	movq	(%rcx), %rcx
	movq	(%rdx), %rdx
	movq	(%rax), %rax
	movq	(%rcx), %rcx
	movq	(%rdx), %rdx
	movq	(%rax), %rax
	movq	(%rcx), %rcx
	movq	(%rdx), %rdx
	movq	(%rax), %rax
	movq	(%rcx), %rcx
	movq	(%rdx), %rdx
	movq	(%rax), %rax
	movq	(%rcx), %rcx
	movq	(%rdx), %rdx
	movq	(%rax), %rax
	movq	(%rcx), %rcx
	movq	(%rdx), %rdx
	movq	(%rax), %rax
	movq	(%rcx), %rcx
	movq	(%rdx), %rdx
	movq	(%rax), %rax
	movq	(%rcx), %rcx
	movq	(%rdx), %rdx
	movq	(%rax), %rax
	movq	(%rcx), %rcx
	movq	(%rdx), %rdx
	movq	(%rax), %rax
	movq	(%rcx), %rcx
	movq	(%rdx), %rdx
	movq	(%rax), %rax
	movq	(%rcx), %rcx
	movq	(%rdx), %rdx
	movq	(%rax), %rax
	movq	(%rcx), %rcx
	movq	(%rdx), %rdx
	movq	(%rax), %rax
	movq	(%rcx), %rcx
	movq	(%rdx), %rdx
	movq	(%rax), %rax
	movq	(%rcx), %rcx
	movq	(%rdx), %rdx
	addq	$-1, %rdi
	jne	.LBB2_6
.LBB2_7:
	movq	%rax, mem_benchmark_2.sp0(%rip)
	movq	%rcx, mem_benchmark_2.sp1(%rip)
	movq	%rdx, mem_benchmark_2.sp2(%rip)
	movq	(%rsi), %rax
	movq	%rax, mem_benchmark_2.addr_save(%rip)
	movb	$1, mem_benchmark_rerun(%rip)
	popq	%rbp
	.cfi_def_cfa %rsp, 8
	retq
.Lfunc_end2:
	.size	mem_benchmark_2, .Lfunc_end2-mem_benchmark_2
	.cfi_endproc
                                        # -- End function
	.globl	mem_benchmark_3         # -- Begin function mem_benchmark_3
	.p2align	4, 0x90
	.type	mem_benchmark_3,@function
mem_benchmark_3:                        # @mem_benchmark_3
	.cfi_startproc
# %bb.0:
	pushq	%rbp
	.cfi_def_cfa_offset 16
	.cfi_offset %rbp, -16
	movq	%rsp, %rbp
	.cfi_def_cfa_register %rbp
	cmpb	$1, mem_benchmark_rerun(%rip)
	jne	.LBB3_3
# %bb.1:
	movq	mem_benchmark_3.addr_save(%rip), %rax
	leaq	16(%rsi), %rcx
	leaq	24(%rsi), %rdx
	leaq	32(%rsi), %r9
	cmpq	(%rsi), %rax
	movl	$mem_benchmark_3.sp0, %eax
	cmovneq	%rcx, %rax
	movq	(%rax), %r8
	movl	$mem_benchmark_3.sp1, %eax
	cmovneq	%rdx, %rax
	movq	(%rax), %r10
	movl	$mem_benchmark_3.sp2, %eax
	cmovneq	%r9, %rax
	movq	(%rax), %r9
	jne	.LBB3_4
# %bb.2:
	movl	$mem_benchmark_3.sp3, %eax
	jmp	.LBB3_5
.LBB3_3:
	movq	16(%rsi), %r8
	movq	24(%rsi), %r10
	movq	32(%rsi), %r9
.LBB3_4:
	leaq	40(%rsi), %rax
.LBB3_5:
	movq	(%rax), %r11
	testq	%rdi, %rdi
	je	.LBB3_7
	.p2align	4, 0x90
.LBB3_6:                                # =>This Inner Loop Header: Depth=1
	movq	(%r8), %rcx
	movq	(%r10), %rdx
	movq	(%r9), %rax
	movq	(%r11), %r8
	movq	(%rcx), %rcx
	movq	(%rdx), %rdx
	movq	(%rax), %rax
	movq	(%r8), %r8
	movq	(%rcx), %rcx
	movq	(%rdx), %rdx
	movq	(%rax), %rax
	movq	(%r8), %r8
	movq	(%rcx), %rcx
	movq	(%rdx), %rdx
	movq	(%rax), %rax
	movq	(%r8), %r8
	movq	(%rcx), %rcx
	movq	(%rdx), %rdx
	movq	(%rax), %rax
	movq	(%r8), %r8
	movq	(%rcx), %rcx
	movq	(%rdx), %rdx
	movq	(%rax), %rax
	movq	(%r8), %r8
	movq	(%rcx), %rcx
	movq	(%rdx), %rdx
	movq	(%rax), %rax
	movq	(%r8), %r8
	movq	(%rcx), %rcx
	movq	(%rdx), %rdx
	movq	(%rax), %rax
	movq	(%r8), %r8
	movq	(%rcx), %rcx
	movq	(%rdx), %rdx
	movq	(%rax), %rax
	movq	(%r8), %r8
	movq	(%rcx), %rcx
	movq	(%rdx), %rdx
	movq	(%rax), %rax
	movq	(%r8), %r8
	movq	(%rcx), %rcx
	movq	(%rdx), %rdx
	movq	(%rax), %rax
	movq	(%r8), %r8
	movq	(%rcx), %rcx
	movq	(%rdx), %rdx
	movq	(%rax), %rax
	movq	(%r8), %r8
	movq	(%rcx), %rcx
	movq	(%rdx), %rdx
	movq	(%rax), %rax
	movq	(%r8), %r8
	movq	(%rcx), %rcx
	movq	(%rdx), %rdx
	movq	(%rax), %rax
	movq	(%r8), %r8
	movq	(%rcx), %rcx
	movq	(%rdx), %rdx
	movq	(%rax), %rax
	movq	(%r8), %r8
	movq	(%rcx), %rcx
	movq	(%rdx), %rdx
	movq	(%rax), %rax
	movq	(%r8), %r8
	movq	(%rcx), %rcx
	movq	(%rdx), %rdx
	movq	(%rax), %rax
	movq	(%r8), %r8
	movq	(%rcx), %rcx
	movq	(%rdx), %rdx
	movq	(%rax), %rax
	movq	(%r8), %r8
	movq	(%rcx), %rcx
	movq	(%rdx), %rdx
	movq	(%rax), %rax
	movq	(%r8), %r8
	movq	(%rcx), %rcx
	movq	(%rdx), %rdx
	movq	(%rax), %rax
	movq	(%r8), %r8
	movq	(%rcx), %rcx
	movq	(%rdx), %rdx
	movq	(%rax), %rax
	movq	(%r8), %r8
	movq	(%rcx), %rcx
	movq	(%rdx), %rdx
	movq	(%rax), %rax
	movq	(%r8), %r8
	movq	(%rcx), %rcx
	movq	(%rdx), %rdx
	movq	(%rax), %rax
	movq	(%r8), %r8
	movq	(%rcx), %rcx
	movq	(%rdx), %rdx
	movq	(%rax), %rax
	movq	(%r8), %r8
	movq	(%rcx), %rcx
	movq	(%rdx), %rdx
	movq	(%rax), %rax
	movq	(%r8), %r8
	movq	(%rcx), %rcx
	movq	(%rdx), %rdx
	movq	(%rax), %rax
	movq	(%r8), %r8
	movq	(%rcx), %rcx
	movq	(%rdx), %rdx
	movq	(%rax), %rax
	movq	(%r8), %r8
	movq	(%rcx), %rcx
	movq	(%rdx), %rdx
	movq	(%rax), %rax
	movq	(%r8), %r8
	movq	(%rcx), %rcx
	movq	(%rdx), %rdx
	movq	(%rax), %rax
	movq	(%r8), %r8
	movq	(%rcx), %rcx
	movq	(%rdx), %rdx
	movq	(%rax), %rax
	movq	(%r8), %r8
	movq	(%rcx), %rcx
	movq	(%rdx), %rdx
	movq	(%rax), %rax
	movq	(%r8), %r8
	movq	(%rcx), %rcx
	movq	(%rdx), %rdx
	movq	(%rax), %rax
	movq	(%r8), %r8
	movq	(%rcx), %rcx
	movq	(%rdx), %rdx
	movq	(%rax), %rax
	movq	(%r8), %r8
	movq	(%rcx), %rcx
	movq	(%rdx), %rdx
	movq	(%rax), %rax
	movq	(%r8), %r8
	movq	(%rcx), %rcx
	movq	(%rdx), %rdx
	movq	(%rax), %rax
	movq	(%r8), %r8
	movq	(%rcx), %rcx
	movq	(%rdx), %rdx
	movq	(%rax), %rax
	movq	(%r8), %r8
	movq	(%rcx), %rcx
	movq	(%rdx), %rdx
	movq	(%rax), %rax
	movq	(%r8), %r8
	movq	(%rcx), %rcx
	movq	(%rdx), %rdx
	movq	(%rax), %rax
	movq	(%r8), %r8
	movq	(%rcx), %rcx
	movq	(%rdx), %rdx
	movq	(%rax), %rax
	movq	(%r8), %r8
	movq	(%rcx), %rcx
	movq	(%rdx), %rdx
	movq	(%rax), %rax
	movq	(%r8), %r8
	movq	(%rcx), %rcx
	movq	(%rdx), %rdx
	movq	(%rax), %rax
	movq	(%r8), %r8
	movq	(%rcx), %rcx
	movq	(%rdx), %rdx
	movq	(%rax), %rax
	movq	(%r8), %r8
	movq	(%rcx), %rcx
	movq	(%rdx), %rdx
	movq	(%rax), %rax
	movq	(%r8), %r8
	movq	(%rcx), %rcx
	movq	(%rdx), %rdx
	movq	(%rax), %rax
	movq	(%r8), %r8
	movq	(%rcx), %rcx
	movq	(%rdx), %rdx
	movq	(%rax), %rax
	movq	(%r8), %r8
	movq	(%rcx), %rcx
	movq	(%rdx), %rdx
	movq	(%rax), %rax
	movq	(%r8), %r8
	movq	(%rcx), %rcx
	movq	(%rdx), %rdx
	movq	(%rax), %rax
	movq	(%r8), %r8
	movq	(%rcx), %rcx
	movq	(%rdx), %rdx
	movq	(%rax), %rax
	movq	(%r8), %r8
	movq	(%rcx), %rcx
	movq	(%rdx), %rdx
	movq	(%rax), %rax
	movq	(%r8), %r8
	movq	(%rcx), %rcx
	movq	(%rdx), %rdx
	movq	(%rax), %rax
	movq	(%r8), %r8
	movq	(%rcx), %rcx
	movq	(%rdx), %rdx
	movq	(%rax), %rax
	movq	(%r8), %r8
	movq	(%rcx), %rcx
	movq	(%rdx), %rdx
	movq	(%rax), %rax
	movq	(%r8), %r8
	movq	(%rcx), %rcx
	movq	(%rdx), %rdx
	movq	(%rax), %rax
	movq	(%r8), %r8
	movq	(%rcx), %rcx
	movq	(%rdx), %rdx
	movq	(%rax), %rax
	movq	(%r8), %r8
	movq	(%rcx), %rcx
	movq	(%rdx), %rdx
	movq	(%rax), %rax
	movq	(%r8), %r8
	movq	(%rcx), %rcx
	movq	(%rdx), %rdx
	movq	(%rax), %rax
	movq	(%r8), %r8
	movq	(%rcx), %rcx
	movq	(%rdx), %rdx
	movq	(%rax), %rax
	movq	(%r8), %r8
	movq	(%rcx), %rcx
	movq	(%rdx), %rdx
	movq	(%rax), %rax
	movq	(%r8), %r8
	movq	(%rcx), %rcx
	movq	(%rdx), %rdx
	movq	(%rax), %rax
	movq	(%r8), %r8
	movq	(%rcx), %rcx
	movq	(%rdx), %rdx
	movq	(%rax), %rax
	movq	(%r8), %r8
	movq	(%rcx), %rcx
	movq	(%rdx), %rdx
	movq	(%rax), %rax
	movq	(%r8), %r8
	movq	(%rcx), %rcx
	movq	(%rdx), %rdx
	movq	(%rax), %rax
	movq	(%r8), %r8
	movq	(%rcx), %rcx
	movq	(%rdx), %rdx
	movq	(%rax), %rax
	movq	(%r8), %r8
	movq	(%rcx), %rcx
	movq	(%rdx), %rdx
	movq	(%rax), %rax
	movq	(%r8), %r8
	movq	(%rcx), %rcx
	movq	(%rdx), %rdx
	movq	(%rax), %rax
	movq	(%r8), %r8
	movq	(%rcx), %rcx
	movq	(%rdx), %rdx
	movq	(%rax), %rax
	movq	(%r8), %r8
	movq	(%rcx), %rcx
	movq	(%rdx), %rdx
	movq	(%rax), %rax
	movq	(%r8), %r8
	movq	(%rcx), %rcx
	movq	(%rdx), %rdx
	movq	(%rax), %rax
	movq	(%r8), %r8
	movq	(%rcx), %rcx
	movq	(%rdx), %rdx
	movq	(%rax), %rax
	movq	(%r8), %r8
	movq	(%rcx), %rcx
	movq	(%rdx), %rdx
	movq	(%rax), %rax
	movq	(%r8), %r8
	movq	(%rcx), %rcx
	movq	(%rdx), %rdx
	movq	(%rax), %rax
	movq	(%r8), %r8
	movq	(%rcx), %rcx
	movq	(%rdx), %rdx
	movq	(%rax), %rax
	movq	(%r8), %r8
	movq	(%rcx), %rcx
	movq	(%rdx), %rdx
	movq	(%rax), %rax
	movq	(%r8), %r8
	movq	(%rcx), %rcx
	movq	(%rdx), %rdx
	movq	(%rax), %rax
	movq	(%r8), %r8
	movq	(%rcx), %rcx
	movq	(%rdx), %rdx
	movq	(%rax), %rax
	movq	(%r8), %r8
	movq	(%rcx), %rcx
	movq	(%rdx), %rdx
	movq	(%rax), %rax
	movq	(%r8), %r8
	movq	(%rcx), %rcx
	movq	(%rdx), %rdx
	movq	(%rax), %rax
	movq	(%r8), %r8
	movq	(%rcx), %rcx
	movq	(%rdx), %rdx
	movq	(%rax), %rax
	movq	(%r8), %r8
	movq	(%rcx), %rcx
	movq	(%rdx), %rdx
	movq	(%rax), %rax
	movq	(%r8), %r8
	movq	(%rcx), %rcx
	movq	(%rdx), %rdx
	movq	(%rax), %rax
	movq	(%r8), %r8
	movq	(%rcx), %rcx
	movq	(%rdx), %rdx
	movq	(%rax), %rax
	movq	(%r8), %r8
	movq	(%rcx), %rcx
	movq	(%rdx), %rdx
	movq	(%rax), %rax
	movq	(%r8), %r8
	movq	(%rcx), %rcx
	movq	(%rdx), %rdx
	movq	(%rax), %rax
	movq	(%r8), %r8
	movq	(%rcx), %rcx
	movq	(%rdx), %rdx
	movq	(%rax), %rax
	movq	(%r8), %r8
	movq	(%rcx), %rcx
	movq	(%rdx), %rdx
	movq	(%rax), %rax
	movq	(%r8), %r8
	movq	(%rcx), %rcx
	movq	(%rdx), %rdx
	movq	(%rax), %rax
	movq	(%r8), %r8
	movq	(%rcx), %rcx
	movq	(%rdx), %rdx
	movq	(%rax), %rax
	movq	(%r8), %r8
	movq	(%rcx), %rcx
	movq	(%rdx), %rdx
	movq	(%rax), %rax
	movq	(%r8), %r8
	movq	(%rcx), %rcx
	movq	(%rdx), %rdx
	movq	(%rax), %rax
	movq	(%r8), %r8
	movq	(%rcx), %rcx
	movq	(%rdx), %rdx
	movq	(%rax), %rax
	movq	(%r8), %r8
	movq	(%rcx), %rcx
	movq	(%rdx), %rdx
	movq	(%rax), %rax
	movq	(%r8), %r8
	movq	(%rcx), %rcx
	movq	(%rdx), %rdx
	movq	(%rax), %rax
	movq	(%r8), %r8
	movq	(%rcx), %rcx
	movq	(%rdx), %rdx
	movq	(%rax), %rax
	movq	(%r8), %r8
	movq	(%rcx), %rcx
	movq	(%rdx), %rdx
	movq	(%rax), %rax
	movq	(%r8), %r8
	movq	(%rcx), %rcx
	movq	(%rdx), %rdx
	movq	(%rax), %rax
	movq	(%r8), %r8
	movq	(%rcx), %rcx
	movq	(%rdx), %rdx
	movq	(%rax), %rax
	movq	(%r8), %r8
	movq	(%rcx), %rcx
	movq	(%rdx), %rdx
	movq	(%rax), %rax
	movq	(%r8), %r8
	movq	(%rcx), %rcx
	movq	(%rdx), %rdx
	movq	(%rax), %rax
	movq	(%r8), %r8
	movq	(%rcx), %rcx
	movq	(%rdx), %rdx
	movq	(%rax), %rax
	movq	(%r8), %r11
	movq	(%rcx), %r8
	movq	(%rdx), %r10
	movq	(%rax), %r9
	movq	(%r11), %r11
	addq	$-1, %rdi
	jne	.LBB3_6
.LBB3_7:
	movq	%r8, mem_benchmark_3.sp0(%rip)
	movq	%r10, mem_benchmark_3.sp1(%rip)
	movq	%r9, mem_benchmark_3.sp2(%rip)
	movq	%r11, mem_benchmark_3.sp3(%rip)
	movq	(%rsi), %rax
	movq	%rax, mem_benchmark_3.addr_save(%rip)
	movb	$1, mem_benchmark_rerun(%rip)
	popq	%rbp
	.cfi_def_cfa %rsp, 8
	retq
.Lfunc_end3:
	.size	mem_benchmark_3, .Lfunc_end3-mem_benchmark_3
	.cfi_endproc
                                        # -- End function
	.globl	mem_benchmark_4         # -- Begin function mem_benchmark_4
	.p2align	4, 0x90
	.type	mem_benchmark_4,@function
mem_benchmark_4:                        # @mem_benchmark_4
	.cfi_startproc
# %bb.0:
	pushq	%rbp
	.cfi_def_cfa_offset 16
	.cfi_offset %rbp, -16
	movq	%rsp, %rbp
	.cfi_def_cfa_register %rbp
	pushq	%r14
	pushq	%rbx
	.cfi_offset %rbx, -32
	.cfi_offset %r14, -24
	cmpb	$1, mem_benchmark_rerun(%rip)
	jne	.LBB4_3
# %bb.1:
	movq	mem_benchmark_4.addr_save(%rip), %rax
	leaq	16(%rsi), %rcx
	leaq	24(%rsi), %rdx
	leaq	32(%rsi), %r10
	leaq	40(%rsi), %r11
	cmpq	(%rsi), %rax
	movl	$mem_benchmark_4.sp0, %eax
	cmovneq	%rcx, %rax
	movq	(%rax), %r8
	movl	$mem_benchmark_4.sp1, %eax
	cmovneq	%rdx, %rax
	movq	(%rax), %r9
	movl	$mem_benchmark_4.sp2, %eax
	cmovneq	%r10, %rax
	movq	(%rax), %r10
	movl	$mem_benchmark_4.sp3, %eax
	cmovneq	%r11, %rax
	movq	(%rax), %r11
	jne	.LBB4_4
# %bb.2:
	movl	$mem_benchmark_4.sp4, %ecx
	jmp	.LBB4_5
.LBB4_3:
	movq	16(%rsi), %r8
	movq	24(%rsi), %r9
	movq	32(%rsi), %r10
	movq	40(%rsi), %r11
.LBB4_4:
	leaq	48(%rsi), %rcx
.LBB4_5:
	movq	(%rcx), %r14
	testq	%rdi, %rdi
	je	.LBB4_7
	.p2align	4, 0x90
.LBB4_6:                                # =>This Inner Loop Header: Depth=1
	movq	(%r8), %rdx
	movq	(%r9), %rax
	movq	(%r10), %rcx
	movq	(%r11), %rbx
	movq	(%r14), %r8
	movq	(%rdx), %rdx
	movq	(%rax), %rax
	movq	(%rcx), %rcx
	movq	(%rbx), %rbx
	movq	(%r8), %r8
	movq	(%rdx), %rdx
	movq	(%rax), %rax
	movq	(%rcx), %rcx
	movq	(%rbx), %rbx
	movq	(%r8), %r8
	movq	(%rdx), %rdx
	movq	(%rax), %rax
	movq	(%rcx), %rcx
	movq	(%rbx), %rbx
	movq	(%r8), %r8
	movq	(%rdx), %rdx
	movq	(%rax), %rax
	movq	(%rcx), %rcx
	movq	(%rbx), %rbx
	movq	(%r8), %r8
	movq	(%rdx), %rdx
	movq	(%rax), %rax
	movq	(%rcx), %rcx
	movq	(%rbx), %rbx
	movq	(%r8), %r8
	movq	(%rdx), %rdx
	movq	(%rax), %rax
	movq	(%rcx), %rcx
	movq	(%rbx), %rbx
	movq	(%r8), %r8
	movq	(%rdx), %rdx
	movq	(%rax), %rax
	movq	(%rcx), %rcx
	movq	(%rbx), %rbx
	movq	(%r8), %r8
	movq	(%rdx), %rdx
	movq	(%rax), %rax
	movq	(%rcx), %rcx
	movq	(%rbx), %rbx
	movq	(%r8), %r8
	movq	(%rdx), %rdx
	movq	(%rax), %rax
	movq	(%rcx), %rcx
	movq	(%rbx), %rbx
	movq	(%r8), %r8
	movq	(%rdx), %rdx
	movq	(%rax), %rax
	movq	(%rcx), %rcx
	movq	(%rbx), %rbx
	movq	(%r8), %r8
	movq	(%rdx), %rdx
	movq	(%rax), %rax
	movq	(%rcx), %rcx
	movq	(%rbx), %rbx
	movq	(%r8), %r8
	movq	(%rdx), %rdx
	movq	(%rax), %rax
	movq	(%rcx), %rcx
	movq	(%rbx), %rbx
	movq	(%r8), %r8
	movq	(%rdx), %rdx
	movq	(%rax), %rax
	movq	(%rcx), %rcx
	movq	(%rbx), %rbx
	movq	(%r8), %r8
	movq	(%rdx), %rdx
	movq	(%rax), %rax
	movq	(%rcx), %rcx
	movq	(%rbx), %rbx
	movq	(%r8), %r8
	movq	(%rdx), %rdx
	movq	(%rax), %rax
	movq	(%rcx), %rcx
	movq	(%rbx), %rbx
	movq	(%r8), %r8
	movq	(%rdx), %rdx
	movq	(%rax), %rax
	movq	(%rcx), %rcx
	movq	(%rbx), %rbx
	movq	(%r8), %r8
	movq	(%rdx), %rdx
	movq	(%rax), %rax
	movq	(%rcx), %rcx
	movq	(%rbx), %rbx
	movq	(%r8), %r8
	movq	(%rdx), %rdx
	movq	(%rax), %rax
	movq	(%rcx), %rcx
	movq	(%rbx), %rbx
	movq	(%r8), %r8
	movq	(%rdx), %rdx
	movq	(%rax), %rax
	movq	(%rcx), %rcx
	movq	(%rbx), %rbx
	movq	(%r8), %r8
	movq	(%rdx), %rdx
	movq	(%rax), %rax
	movq	(%rcx), %rcx
	movq	(%rbx), %rbx
	movq	(%r8), %r8
	movq	(%rdx), %rdx
	movq	(%rax), %rax
	movq	(%rcx), %rcx
	movq	(%rbx), %rbx
	movq	(%r8), %r8
	movq	(%rdx), %rdx
	movq	(%rax), %rax
	movq	(%rcx), %rcx
	movq	(%rbx), %rbx
	movq	(%r8), %r8
	movq	(%rdx), %rdx
	movq	(%rax), %rax
	movq	(%rcx), %rcx
	movq	(%rbx), %rbx
	movq	(%r8), %r8
	movq	(%rdx), %rdx
	movq	(%rax), %rax
	movq	(%rcx), %rcx
	movq	(%rbx), %rbx
	movq	(%r8), %r8
	movq	(%rdx), %rdx
	movq	(%rax), %rax
	movq	(%rcx), %rcx
	movq	(%rbx), %rbx
	movq	(%r8), %r8
	movq	(%rdx), %rdx
	movq	(%rax), %rax
	movq	(%rcx), %rcx
	movq	(%rbx), %rbx
	movq	(%r8), %r8
	movq	(%rdx), %rdx
	movq	(%rax), %rax
	movq	(%rcx), %rcx
	movq	(%rbx), %rbx
	movq	(%r8), %r8
	movq	(%rdx), %rdx
	movq	(%rax), %rax
	movq	(%rcx), %rcx
	movq	(%rbx), %rbx
	movq	(%r8), %r8
	movq	(%rdx), %rdx
	movq	(%rax), %rax
	movq	(%rcx), %rcx
	movq	(%rbx), %rbx
	movq	(%r8), %r8
	movq	(%rdx), %rdx
	movq	(%rax), %rax
	movq	(%rcx), %rcx
	movq	(%rbx), %rbx
	movq	(%r8), %r8
	movq	(%rdx), %rdx
	movq	(%rax), %rax
	movq	(%rcx), %rcx
	movq	(%rbx), %rbx
	movq	(%r8), %r8
	movq	(%rdx), %rdx
	movq	(%rax), %rax
	movq	(%rcx), %rcx
	movq	(%rbx), %rbx
	movq	(%r8), %r8
	movq	(%rdx), %rdx
	movq	(%rax), %rax
	movq	(%rcx), %rcx
	movq	(%rbx), %rbx
	movq	(%r8), %r8
	movq	(%rdx), %rdx
	movq	(%rax), %rax
	movq	(%rcx), %rcx
	movq	(%rbx), %rbx
	movq	(%r8), %r8
	movq	(%rdx), %rdx
	movq	(%rax), %rax
	movq	(%rcx), %rcx
	movq	(%rbx), %rbx
	movq	(%r8), %r8
	movq	(%rdx), %rdx
	movq	(%rax), %rax
	movq	(%rcx), %rcx
	movq	(%rbx), %rbx
	movq	(%r8), %r8
	movq	(%rdx), %rdx
	movq	(%rax), %rax
	movq	(%rcx), %rcx
	movq	(%rbx), %rbx
	movq	(%r8), %r8
	movq	(%rdx), %rdx
	movq	(%rax), %rax
	movq	(%rcx), %rcx
	movq	(%rbx), %rbx
	movq	(%r8), %r8
	movq	(%rdx), %rdx
	movq	(%rax), %rax
	movq	(%rcx), %rcx
	movq	(%rbx), %rbx
	movq	(%r8), %r8
	movq	(%rdx), %rdx
	movq	(%rax), %rax
	movq	(%rcx), %rcx
	movq	(%rbx), %rbx
	movq	(%r8), %r8
	movq	(%rdx), %rdx
	movq	(%rax), %rax
	movq	(%rcx), %rcx
	movq	(%rbx), %rbx
	movq	(%r8), %r8
	movq	(%rdx), %rdx
	movq	(%rax), %rax
	movq	(%rcx), %rcx
	movq	(%rbx), %rbx
	movq	(%r8), %r8
	movq	(%rdx), %rdx
	movq	(%rax), %rax
	movq	(%rcx), %rcx
	movq	(%rbx), %rbx
	movq	(%r8), %r8
	movq	(%rdx), %rdx
	movq	(%rax), %rax
	movq	(%rcx), %rcx
	movq	(%rbx), %rbx
	movq	(%r8), %r8
	movq	(%rdx), %rdx
	movq	(%rax), %rax
	movq	(%rcx), %rcx
	movq	(%rbx), %rbx
	movq	(%r8), %r8
	movq	(%rdx), %rdx
	movq	(%rax), %rax
	movq	(%rcx), %rcx
	movq	(%rbx), %rbx
	movq	(%r8), %r8
	movq	(%rdx), %rdx
	movq	(%rax), %rax
	movq	(%rcx), %rcx
	movq	(%rbx), %rbx
	movq	(%r8), %r8
	movq	(%rdx), %rdx
	movq	(%rax), %rax
	movq	(%rcx), %rcx
	movq	(%rbx), %rbx
	movq	(%r8), %r8
	movq	(%rdx), %rdx
	movq	(%rax), %rax
	movq	(%rcx), %rcx
	movq	(%rbx), %rbx
	movq	(%r8), %r8
	movq	(%rdx), %rdx
	movq	(%rax), %rax
	movq	(%rcx), %rcx
	movq	(%rbx), %rbx
	movq	(%r8), %r8
	movq	(%rdx), %rdx
	movq	(%rax), %rax
	movq	(%rcx), %rcx
	movq	(%rbx), %rbx
	movq	(%r8), %r8
	movq	(%rdx), %rdx
	movq	(%rax), %rax
	movq	(%rcx), %rcx
	movq	(%rbx), %rbx
	movq	(%r8), %r8
	movq	(%rdx), %rdx
	movq	(%rax), %rax
	movq	(%rcx), %rcx
	movq	(%rbx), %rbx
	movq	(%r8), %r8
	movq	(%rdx), %rdx
	movq	(%rax), %rax
	movq	(%rcx), %rcx
	movq	(%rbx), %rbx
	movq	(%r8), %r8
	movq	(%rdx), %rdx
	movq	(%rax), %rax
	movq	(%rcx), %rcx
	movq	(%rbx), %rbx
	movq	(%r8), %r8
	movq	(%rdx), %rdx
	movq	(%rax), %rax
	movq	(%rcx), %rcx
	movq	(%rbx), %rbx
	movq	(%r8), %r8
	movq	(%rdx), %rdx
	movq	(%rax), %rax
	movq	(%rcx), %rcx
	movq	(%rbx), %rbx
	movq	(%r8), %r8
	movq	(%rdx), %rdx
	movq	(%rax), %rax
	movq	(%rcx), %rcx
	movq	(%rbx), %rbx
	movq	(%r8), %r8
	movq	(%rdx), %rdx
	movq	(%rax), %rax
	movq	(%rcx), %rcx
	movq	(%rbx), %rbx
	movq	(%r8), %r8
	movq	(%rdx), %rdx
	movq	(%rax), %rax
	movq	(%rcx), %rcx
	movq	(%rbx), %rbx
	movq	(%r8), %r8
	movq	(%rdx), %rdx
	movq	(%rax), %rax
	movq	(%rcx), %rcx
	movq	(%rbx), %rbx
	movq	(%r8), %r8
	movq	(%rdx), %rdx
	movq	(%rax), %rax
	movq	(%rcx), %rcx
	movq	(%rbx), %rbx
	movq	(%r8), %r8
	movq	(%rdx), %rdx
	movq	(%rax), %rax
	movq	(%rcx), %rcx
	movq	(%rbx), %rbx
	movq	(%r8), %r8
	movq	(%rdx), %rdx
	movq	(%rax), %rax
	movq	(%rcx), %rcx
	movq	(%rbx), %rbx
	movq	(%r8), %r8
	movq	(%rdx), %rdx
	movq	(%rax), %rax
	movq	(%rcx), %rcx
	movq	(%rbx), %rbx
	movq	(%r8), %r8
	movq	(%rdx), %rdx
	movq	(%rax), %rax
	movq	(%rcx), %rcx
	movq	(%rbx), %rbx
	movq	(%r8), %r8
	movq	(%rdx), %rdx
	movq	(%rax), %rax
	movq	(%rcx), %rcx
	movq	(%rbx), %rbx
	movq	(%r8), %r8
	movq	(%rdx), %rdx
	movq	(%rax), %rax
	movq	(%rcx), %rcx
	movq	(%rbx), %rbx
	movq	(%r8), %r8
	movq	(%rdx), %rdx
	movq	(%rax), %rax
	movq	(%rcx), %rcx
	movq	(%rbx), %rbx
	movq	(%r8), %r8
	movq	(%rdx), %rdx
	movq	(%rax), %rax
	movq	(%rcx), %rcx
	movq	(%rbx), %rbx
	movq	(%r8), %r8
	movq	(%rdx), %rdx
	movq	(%rax), %rax
	movq	(%rcx), %rcx
	movq	(%rbx), %rbx
	movq	(%r8), %r8
	movq	(%rdx), %rdx
	movq	(%rax), %rax
	movq	(%rcx), %rcx
	movq	(%rbx), %rbx
	movq	(%r8), %r8
	movq	(%rdx), %rdx
	movq	(%rax), %rax
	movq	(%rcx), %rcx
	movq	(%rbx), %rbx
	movq	(%r8), %r8
	movq	(%rdx), %rdx
	movq	(%rax), %rax
	movq	(%rcx), %rcx
	movq	(%rbx), %rbx
	movq	(%r8), %r8
	movq	(%rdx), %rdx
	movq	(%rax), %rax
	movq	(%rcx), %rcx
	movq	(%rbx), %rbx
	movq	(%r8), %r8
	movq	(%rdx), %rdx
	movq	(%rax), %rax
	movq	(%rcx), %rcx
	movq	(%rbx), %rbx
	movq	(%r8), %r8
	movq	(%rdx), %rdx
	movq	(%rax), %rax
	movq	(%rcx), %rcx
	movq	(%rbx), %rbx
	movq	(%r8), %r8
	movq	(%rdx), %rdx
	movq	(%rax), %rax
	movq	(%rcx), %rcx
	movq	(%rbx), %rbx
	movq	(%r8), %r8
	movq	(%rdx), %rdx
	movq	(%rax), %rax
	movq	(%rcx), %rcx
	movq	(%rbx), %rbx
	movq	(%r8), %r8
	movq	(%rdx), %rdx
	movq	(%rax), %rax
	movq	(%rcx), %rcx
	movq	(%rbx), %rbx
	movq	(%r8), %r8
	movq	(%rdx), %rdx
	movq	(%rax), %rax
	movq	(%rcx), %rcx
	movq	(%rbx), %rbx
	movq	(%r8), %r8
	movq	(%rdx), %rdx
	movq	(%rax), %rax
	movq	(%rcx), %rcx
	movq	(%rbx), %rbx
	movq	(%r8), %r8
	movq	(%rdx), %rdx
	movq	(%rax), %rax
	movq	(%rcx), %rcx
	movq	(%rbx), %rbx
	movq	(%r8), %r8
	movq	(%rdx), %rdx
	movq	(%rax), %rax
	movq	(%rcx), %rcx
	movq	(%rbx), %rbx
	movq	(%r8), %r8
	movq	(%rdx), %rdx
	movq	(%rax), %rax
	movq	(%rcx), %rcx
	movq	(%rbx), %rbx
	movq	(%r8), %r8
	movq	(%rdx), %rdx
	movq	(%rax), %rax
	movq	(%rcx), %rcx
	movq	(%rbx), %rbx
	movq	(%r8), %r8
	movq	(%rdx), %rdx
	movq	(%rax), %rax
	movq	(%rcx), %rcx
	movq	(%rbx), %rbx
	movq	(%r8), %r8
	movq	(%rdx), %rdx
	movq	(%rax), %rax
	movq	(%rcx), %rcx
	movq	(%rbx), %rbx
	movq	(%r8), %r8
	movq	(%rdx), %rdx
	movq	(%rax), %rax
	movq	(%rcx), %rcx
	movq	(%rbx), %rbx
	movq	(%r8), %r8
	movq	(%rdx), %rdx
	movq	(%rax), %rax
	movq	(%rcx), %rcx
	movq	(%rbx), %rbx
	movq	(%r8), %r8
	movq	(%rdx), %rdx
	movq	(%rax), %rax
	movq	(%rcx), %rcx
	movq	(%rbx), %rbx
	movq	(%r8), %r8
	movq	(%rdx), %rdx
	movq	(%rax), %rax
	movq	(%rcx), %rcx
	movq	(%rbx), %rbx
	movq	(%r8), %r8
	movq	(%rdx), %rdx
	movq	(%rax), %rax
	movq	(%rcx), %rcx
	movq	(%rbx), %rbx
	movq	(%r8), %r8
	movq	(%rdx), %rdx
	movq	(%rax), %rax
	movq	(%rcx), %rcx
	movq	(%rbx), %rbx
	movq	(%r8), %r8
	movq	(%rdx), %rdx
	movq	(%rax), %rax
	movq	(%rcx), %rcx
	movq	(%rbx), %rbx
	movq	(%r8), %r8
	movq	(%rdx), %rdx
	movq	(%rax), %rax
	movq	(%rcx), %rcx
	movq	(%rbx), %rbx
	movq	(%r8), %r8
	movq	(%rdx), %rdx
	movq	(%rax), %rax
	movq	(%rcx), %rcx
	movq	(%rbx), %rbx
	movq	(%r8), %r8
	movq	(%rdx), %rdx
	movq	(%rax), %rax
	movq	(%rcx), %rcx
	movq	(%rbx), %rbx
	movq	(%r8), %r14
	movq	(%rdx), %r8
	movq	(%rax), %r9
	movq	(%rcx), %r10
	movq	(%rbx), %r11
	movq	(%r14), %r14
	addq	$-1, %rdi
	jne	.LBB4_6
.LBB4_7:
	movq	%r8, mem_benchmark_4.sp0(%rip)
	movq	%r9, mem_benchmark_4.sp1(%rip)
	movq	%r10, mem_benchmark_4.sp2(%rip)
	movq	%r11, mem_benchmark_4.sp3(%rip)
	movq	%r14, mem_benchmark_4.sp4(%rip)
	movq	(%rsi), %rax
	movq	%rax, mem_benchmark_4.addr_save(%rip)
	movb	$1, mem_benchmark_rerun(%rip)
	popq	%rbx
	popq	%r14
	popq	%rbp
	.cfi_def_cfa %rsp, 8
	retq
.Lfunc_end4:
	.size	mem_benchmark_4, .Lfunc_end4-mem_benchmark_4
	.cfi_endproc
                                        # -- End function
	.globl	mem_benchmark_5         # -- Begin function mem_benchmark_5
	.p2align	4, 0x90
	.type	mem_benchmark_5,@function
mem_benchmark_5:                        # @mem_benchmark_5
	.cfi_startproc
# %bb.0:
	pushq	%rbp
	.cfi_def_cfa_offset 16
	.cfi_offset %rbp, -16
	movq	%rsp, %rbp
	.cfi_def_cfa_register %rbp
	pushq	%r15
	pushq	%r14
	pushq	%rbx
	.cfi_offset %rbx, -40
	.cfi_offset %r14, -32
	.cfi_offset %r15, -24
	cmpb	$1, mem_benchmark_rerun(%rip)
	jne	.LBB5_3
# %bb.1:
	movq	mem_benchmark_5.addr_save(%rip), %rax
	leaq	16(%rsi), %rcx
	leaq	24(%rsi), %rdx
	leaq	32(%rsi), %r10
	leaq	40(%rsi), %r11
	leaq	48(%rsi), %rbx
	cmpq	(%rsi), %rax
	movl	$mem_benchmark_5.sp0, %eax
	cmovneq	%rcx, %rax
	movq	(%rax), %r8
	movl	$mem_benchmark_5.sp1, %eax
	cmovneq	%rdx, %rax
	movq	(%rax), %r9
	movl	$mem_benchmark_5.sp2, %eax
	cmovneq	%r10, %rax
	movq	(%rax), %r10
	movl	$mem_benchmark_5.sp3, %eax
	cmovneq	%r11, %rax
	movq	(%rax), %r11
	movl	$mem_benchmark_5.sp4, %ecx
	cmovneq	%rbx, %rcx
	movq	(%rcx), %r14
	jne	.LBB5_4
# %bb.2:
	movl	$mem_benchmark_5.sp5, %edx
	jmp	.LBB5_5
.LBB5_3:
	movq	16(%rsi), %r8
	movq	24(%rsi), %r9
	movq	32(%rsi), %r10
	movq	40(%rsi), %r11
	movq	48(%rsi), %r14
.LBB5_4:
	leaq	56(%rsi), %rdx
.LBB5_5:
	movq	(%rdx), %r15
	testq	%rdi, %rdi
	je	.LBB5_7
	.p2align	4, 0x90
.LBB5_6:                                # =>This Inner Loop Header: Depth=1
	movq	(%r8), %rbx
	movq	(%r9), %rax
	movq	(%r10), %rcx
	movq	(%r11), %rdx
	movq	(%r14), %r8
	movq	(%r15), %r9
	movq	(%rbx), %rbx
	movq	(%rax), %rax
	movq	(%rcx), %rcx
	movq	(%rdx), %rdx
	movq	(%r8), %r8
	movq	(%r9), %r9
	movq	(%rbx), %rbx
	movq	(%rax), %rax
	movq	(%rcx), %rcx
	movq	(%rdx), %rdx
	movq	(%r8), %r8
	movq	(%r9), %r9
	movq	(%rbx), %rbx
	movq	(%rax), %rax
	movq	(%rcx), %rcx
	movq	(%rdx), %rdx
	movq	(%r8), %r8
	movq	(%r9), %r9
	movq	(%rbx), %rbx
	movq	(%rax), %rax
	movq	(%rcx), %rcx
	movq	(%rdx), %rdx
	movq	(%r8), %r8
	movq	(%r9), %r9
	movq	(%rbx), %rbx
	movq	(%rax), %rax
	movq	(%rcx), %rcx
	movq	(%rdx), %rdx
	movq	(%r8), %r8
	movq	(%r9), %r9
	movq	(%rbx), %rbx
	movq	(%rax), %rax
	movq	(%rcx), %rcx
	movq	(%rdx), %rdx
	movq	(%r8), %r8
	movq	(%r9), %r9
	movq	(%rbx), %rbx
	movq	(%rax), %rax
	movq	(%rcx), %rcx
	movq	(%rdx), %rdx
	movq	(%r8), %r8
	movq	(%r9), %r9
	movq	(%rbx), %rbx
	movq	(%rax), %rax
	movq	(%rcx), %rcx
	movq	(%rdx), %rdx
	movq	(%r8), %r8
	movq	(%r9), %r9
	movq	(%rbx), %rbx
	movq	(%rax), %rax
	movq	(%rcx), %rcx
	movq	(%rdx), %rdx
	movq	(%r8), %r8
	movq	(%r9), %r9
	movq	(%rbx), %rbx
	movq	(%rax), %rax
	movq	(%rcx), %rcx
	movq	(%rdx), %rdx
	movq	(%r8), %r8
	movq	(%r9), %r9
	movq	(%rbx), %rbx
	movq	(%rax), %rax
	movq	(%rcx), %rcx
	movq	(%rdx), %rdx
	movq	(%r8), %r8
	movq	(%r9), %r9
	movq	(%rbx), %rbx
	movq	(%rax), %rax
	movq	(%rcx), %rcx
	movq	(%rdx), %rdx
	movq	(%r8), %r8
	movq	(%r9), %r9
	movq	(%rbx), %rbx
	movq	(%rax), %rax
	movq	(%rcx), %rcx
	movq	(%rdx), %rdx
	movq	(%r8), %r8
	movq	(%r9), %r9
	movq	(%rbx), %rbx
	movq	(%rax), %rax
	movq	(%rcx), %rcx
	movq	(%rdx), %rdx
	movq	(%r8), %r8
	movq	(%r9), %r9
	movq	(%rbx), %rbx
	movq	(%rax), %rax
	movq	(%rcx), %rcx
	movq	(%rdx), %rdx
	movq	(%r8), %r8
	movq	(%r9), %r9
	movq	(%rbx), %rbx
	movq	(%rax), %rax
	movq	(%rcx), %rcx
	movq	(%rdx), %rdx
	movq	(%r8), %r8
	movq	(%r9), %r9
	movq	(%rbx), %rbx
	movq	(%rax), %rax
	movq	(%rcx), %rcx
	movq	(%rdx), %rdx
	movq	(%r8), %r8
	movq	(%r9), %r9
	movq	(%rbx), %rbx
	movq	(%rax), %rax
	movq	(%rcx), %rcx
	movq	(%rdx), %rdx
	movq	(%r8), %r8
	movq	(%r9), %r9
	movq	(%rbx), %rbx
	movq	(%rax), %rax
	movq	(%rcx), %rcx
	movq	(%rdx), %rdx
	movq	(%r8), %r8
	movq	(%r9), %r9
	movq	(%rbx), %rbx
	movq	(%rax), %rax
	movq	(%rcx), %rcx
	movq	(%rdx), %rdx
	movq	(%r8), %r8
	movq	(%r9), %r9
	movq	(%rbx), %rbx
	movq	(%rax), %rax
	movq	(%rcx), %rcx
	movq	(%rdx), %rdx
	movq	(%r8), %r8
	movq	(%r9), %r9
	movq	(%rbx), %rbx
	movq	(%rax), %rax
	movq	(%rcx), %rcx
	movq	(%rdx), %rdx
	movq	(%r8), %r8
	movq	(%r9), %r9
	movq	(%rbx), %rbx
	movq	(%rax), %rax
	movq	(%rcx), %rcx
	movq	(%rdx), %rdx
	movq	(%r8), %r8
	movq	(%r9), %r9
	movq	(%rbx), %rbx
	movq	(%rax), %rax
	movq	(%rcx), %rcx
	movq	(%rdx), %rdx
	movq	(%r8), %r8
	movq	(%r9), %r9
	movq	(%rbx), %rbx
	movq	(%rax), %rax
	movq	(%rcx), %rcx
	movq	(%rdx), %rdx
	movq	(%r8), %r8
	movq	(%r9), %r9
	movq	(%rbx), %rbx
	movq	(%rax), %rax
	movq	(%rcx), %rcx
	movq	(%rdx), %rdx
	movq	(%r8), %r8
	movq	(%r9), %r9
	movq	(%rbx), %rbx
	movq	(%rax), %rax
	movq	(%rcx), %rcx
	movq	(%rdx), %rdx
	movq	(%r8), %r8
	movq	(%r9), %r9
	movq	(%rbx), %rbx
	movq	(%rax), %rax
	movq	(%rcx), %rcx
	movq	(%rdx), %rdx
	movq	(%r8), %r8
	movq	(%r9), %r9
	movq	(%rbx), %rbx
	movq	(%rax), %rax
	movq	(%rcx), %rcx
	movq	(%rdx), %rdx
	movq	(%r8), %r8
	movq	(%r9), %r9
	movq	(%rbx), %rbx
	movq	(%rax), %rax
	movq	(%rcx), %rcx
	movq	(%rdx), %rdx
	movq	(%r8), %r8
	movq	(%r9), %r9
	movq	(%rbx), %rbx
	movq	(%rax), %rax
	movq	(%rcx), %rcx
	movq	(%rdx), %rdx
	movq	(%r8), %r8
	movq	(%r9), %r9
	movq	(%rbx), %rbx
	movq	(%rax), %rax
	movq	(%rcx), %rcx
	movq	(%rdx), %rdx
	movq	(%r8), %r8
	movq	(%r9), %r9
	movq	(%rbx), %rbx
	movq	(%rax), %rax
	movq	(%rcx), %rcx
	movq	(%rdx), %rdx
	movq	(%r8), %r8
	movq	(%r9), %r9
	movq	(%rbx), %rbx
	movq	(%rax), %rax
	movq	(%rcx), %rcx
	movq	(%rdx), %rdx
	movq	(%r8), %r8
	movq	(%r9), %r9
	movq	(%rbx), %rbx
	movq	(%rax), %rax
	movq	(%rcx), %rcx
	movq	(%rdx), %rdx
	movq	(%r8), %r8
	movq	(%r9), %r9
	movq	(%rbx), %rbx
	movq	(%rax), %rax
	movq	(%rcx), %rcx
	movq	(%rdx), %rdx
	movq	(%r8), %r8
	movq	(%r9), %r9
	movq	(%rbx), %rbx
	movq	(%rax), %rax
	movq	(%rcx), %rcx
	movq	(%rdx), %rdx
	movq	(%r8), %r8
	movq	(%r9), %r9
	movq	(%rbx), %rbx
	movq	(%rax), %rax
	movq	(%rcx), %rcx
	movq	(%rdx), %rdx
	movq	(%r8), %r8
	movq	(%r9), %r9
	movq	(%rbx), %rbx
	movq	(%rax), %rax
	movq	(%rcx), %rcx
	movq	(%rdx), %rdx
	movq	(%r8), %r8
	movq	(%r9), %r9
	movq	(%rbx), %rbx
	movq	(%rax), %rax
	movq	(%rcx), %rcx
	movq	(%rdx), %rdx
	movq	(%r8), %r8
	movq	(%r9), %r9
	movq	(%rbx), %rbx
	movq	(%rax), %rax
	movq	(%rcx), %rcx
	movq	(%rdx), %rdx
	movq	(%r8), %r8
	movq	(%r9), %r9
	movq	(%rbx), %rbx
	movq	(%rax), %rax
	movq	(%rcx), %rcx
	movq	(%rdx), %rdx
	movq	(%r8), %r8
	movq	(%r9), %r9
	movq	(%rbx), %rbx
	movq	(%rax), %rax
	movq	(%rcx), %rcx
	movq	(%rdx), %rdx
	movq	(%r8), %r8
	movq	(%r9), %r9
	movq	(%rbx), %rbx
	movq	(%rax), %rax
	movq	(%rcx), %rcx
	movq	(%rdx), %rdx
	movq	(%r8), %r8
	movq	(%r9), %r9
	movq	(%rbx), %rbx
	movq	(%rax), %rax
	movq	(%rcx), %rcx
	movq	(%rdx), %rdx
	movq	(%r8), %r8
	movq	(%r9), %r9
	movq	(%rbx), %rbx
	movq	(%rax), %rax
	movq	(%rcx), %rcx
	movq	(%rdx), %rdx
	movq	(%r8), %r8
	movq	(%r9), %r9
	movq	(%rbx), %rbx
	movq	(%rax), %rax
	movq	(%rcx), %rcx
	movq	(%rdx), %rdx
	movq	(%r8), %r8
	movq	(%r9), %r9
	movq	(%rbx), %rbx
	movq	(%rax), %rax
	movq	(%rcx), %rcx
	movq	(%rdx), %rdx
	movq	(%r8), %r8
	movq	(%r9), %r9
	movq	(%rbx), %rbx
	movq	(%rax), %rax
	movq	(%rcx), %rcx
	movq	(%rdx), %rdx
	movq	(%r8), %r8
	movq	(%r9), %r9
	movq	(%rbx), %rbx
	movq	(%rax), %rax
	movq	(%rcx), %rcx
	movq	(%rdx), %rdx
	movq	(%r8), %r8
	movq	(%r9), %r9
	movq	(%rbx), %rbx
	movq	(%rax), %rax
	movq	(%rcx), %rcx
	movq	(%rdx), %rdx
	movq	(%r8), %r8
	movq	(%r9), %r9
	movq	(%rbx), %rbx
	movq	(%rax), %rax
	movq	(%rcx), %rcx
	movq	(%rdx), %rdx
	movq	(%r8), %r8
	movq	(%r9), %r9
	movq	(%rbx), %rbx
	movq	(%rax), %rax
	movq	(%rcx), %rcx
	movq	(%rdx), %rdx
	movq	(%r8), %r8
	movq	(%r9), %r9
	movq	(%rbx), %rbx
	movq	(%rax), %rax
	movq	(%rcx), %rcx
	movq	(%rdx), %rdx
	movq	(%r8), %r8
	movq	(%r9), %r9
	movq	(%rbx), %rbx
	movq	(%rax), %rax
	movq	(%rcx), %rcx
	movq	(%rdx), %rdx
	movq	(%r8), %r8
	movq	(%r9), %r9
	movq	(%rbx), %rbx
	movq	(%rax), %rax
	movq	(%rcx), %rcx
	movq	(%rdx), %rdx
	movq	(%r8), %r8
	movq	(%r9), %r9
	movq	(%rbx), %rbx
	movq	(%rax), %rax
	movq	(%rcx), %rcx
	movq	(%rdx), %rdx
	movq	(%r8), %r8
	movq	(%r9), %r9
	movq	(%rbx), %rbx
	movq	(%rax), %rax
	movq	(%rcx), %rcx
	movq	(%rdx), %rdx
	movq	(%r8), %r8
	movq	(%r9), %r9
	movq	(%rbx), %rbx
	movq	(%rax), %rax
	movq	(%rcx), %rcx
	movq	(%rdx), %rdx
	movq	(%r8), %r8
	movq	(%r9), %r9
	movq	(%rbx), %rbx
	movq	(%rax), %rax
	movq	(%rcx), %rcx
	movq	(%rdx), %rdx
	movq	(%r8), %r8
	movq	(%r9), %r9
	movq	(%rbx), %rbx
	movq	(%rax), %rax
	movq	(%rcx), %rcx
	movq	(%rdx), %rdx
	movq	(%r8), %r8
	movq	(%r9), %r9
	movq	(%rbx), %rbx
	movq	(%rax), %rax
	movq	(%rcx), %rcx
	movq	(%rdx), %rdx
	movq	(%r8), %r8
	movq	(%r9), %r9
	movq	(%rbx), %rbx
	movq	(%rax), %rax
	movq	(%rcx), %rcx
	movq	(%rdx), %rdx
	movq	(%r8), %r8
	movq	(%r9), %r9
	movq	(%rbx), %rbx
	movq	(%rax), %rax
	movq	(%rcx), %rcx
	movq	(%rdx), %rdx
	movq	(%r8), %r8
	movq	(%r9), %r9
	movq	(%rbx), %rbx
	movq	(%rax), %rax
	movq	(%rcx), %rcx
	movq	(%rdx), %rdx
	movq	(%r8), %r8
	movq	(%r9), %r9
	movq	(%rbx), %rbx
	movq	(%rax), %rax
	movq	(%rcx), %rcx
	movq	(%rdx), %rdx
	movq	(%r8), %r8
	movq	(%r9), %r9
	movq	(%rbx), %rbx
	movq	(%rax), %rax
	movq	(%rcx), %rcx
	movq	(%rdx), %rdx
	movq	(%r8), %r8
	movq	(%r9), %r9
	movq	(%rbx), %rbx
	movq	(%rax), %rax
	movq	(%rcx), %rcx
	movq	(%rdx), %rdx
	movq	(%r8), %r8
	movq	(%r9), %r9
	movq	(%rbx), %rbx
	movq	(%rax), %rax
	movq	(%rcx), %rcx
	movq	(%rdx), %rdx
	movq	(%r8), %r8
	movq	(%r9), %r9
	movq	(%rbx), %rbx
	movq	(%rax), %rax
	movq	(%rcx), %rcx
	movq	(%rdx), %rdx
	movq	(%r8), %r8
	movq	(%r9), %r9
	movq	(%rbx), %rbx
	movq	(%rax), %rax
	movq	(%rcx), %rcx
	movq	(%rdx), %rdx
	movq	(%r8), %r8
	movq	(%r9), %r9
	movq	(%rbx), %rbx
	movq	(%rax), %rax
	movq	(%rcx), %rcx
	movq	(%rdx), %rdx
	movq	(%r8), %r8
	movq	(%r9), %r9
	movq	(%rbx), %rbx
	movq	(%rax), %rax
	movq	(%rcx), %rcx
	movq	(%rdx), %rdx
	movq	(%r8), %r8
	movq	(%r9), %r9
	movq	(%rbx), %rbx
	movq	(%rax), %rax
	movq	(%rcx), %rcx
	movq	(%rdx), %rdx
	movq	(%r8), %r8
	movq	(%r9), %r9
	movq	(%rbx), %rbx
	movq	(%rax), %rax
	movq	(%rcx), %rcx
	movq	(%rdx), %rdx
	movq	(%r8), %r8
	movq	(%r9), %r9
	movq	(%rbx), %rbx
	movq	(%rax), %rax
	movq	(%rcx), %rcx
	movq	(%rdx), %rdx
	movq	(%r8), %r8
	movq	(%r9), %r9
	movq	(%rbx), %rbx
	movq	(%rax), %rax
	movq	(%rcx), %rcx
	movq	(%rdx), %rdx
	movq	(%r8), %r8
	movq	(%r9), %r9
	movq	(%rbx), %rbx
	movq	(%rax), %rax
	movq	(%rcx), %rcx
	movq	(%rdx), %rdx
	movq	(%r8), %r8
	movq	(%r9), %r9
	movq	(%rbx), %rbx
	movq	(%rax), %rax
	movq	(%rcx), %rcx
	movq	(%rdx), %rdx
	movq	(%r8), %r8
	movq	(%r9), %r9
	movq	(%rbx), %rbx
	movq	(%rax), %rax
	movq	(%rcx), %rcx
	movq	(%rdx), %rdx
	movq	(%r8), %r8
	movq	(%r9), %r9
	movq	(%rbx), %rbx
	movq	(%rax), %rax
	movq	(%rcx), %rcx
	movq	(%rdx), %rdx
	movq	(%r8), %r8
	movq	(%r9), %r9
	movq	(%rbx), %rbx
	movq	(%rax), %rax
	movq	(%rcx), %rcx
	movq	(%rdx), %rdx
	movq	(%r8), %r8
	movq	(%r9), %r9
	movq	(%rbx), %rbx
	movq	(%rax), %rax
	movq	(%rcx), %rcx
	movq	(%rdx), %rdx
	movq	(%r8), %r8
	movq	(%r9), %r9
	movq	(%rbx), %rbx
	movq	(%rax), %rax
	movq	(%rcx), %rcx
	movq	(%rdx), %rdx
	movq	(%r8), %r8
	movq	(%r9), %r9
	movq	(%rbx), %rbx
	movq	(%rax), %rax
	movq	(%rcx), %rcx
	movq	(%rdx), %rdx
	movq	(%r8), %r8
	movq	(%r9), %r9
	movq	(%rbx), %rbx
	movq	(%rax), %rax
	movq	(%rcx), %rcx
	movq	(%rdx), %rdx
	movq	(%r8), %r8
	movq	(%r9), %r9
	movq	(%rbx), %rbx
	movq	(%rax), %rax
	movq	(%rcx), %rcx
	movq	(%rdx), %rdx
	movq	(%r8), %r8
	movq	(%r9), %r9
	movq	(%rbx), %rbx
	movq	(%rax), %rax
	movq	(%rcx), %rcx
	movq	(%rdx), %rdx
	movq	(%r8), %r8
	movq	(%r9), %r9
	movq	(%rbx), %rbx
	movq	(%rax), %rax
	movq	(%rcx), %rcx
	movq	(%rdx), %rdx
	movq	(%r8), %r8
	movq	(%r9), %r9
	movq	(%rbx), %rbx
	movq	(%rax), %rax
	movq	(%rcx), %rcx
	movq	(%rdx), %rdx
	movq	(%r8), %r8
	movq	(%r9), %r9
	movq	(%rbx), %rbx
	movq	(%rax), %rax
	movq	(%rcx), %rcx
	movq	(%rdx), %rdx
	movq	(%r8), %r8
	movq	(%r9), %r9
	movq	(%rbx), %rbx
	movq	(%rax), %rax
	movq	(%rcx), %rcx
	movq	(%rdx), %rdx
	movq	(%r8), %r8
	movq	(%r9), %r9
	movq	(%rbx), %rbx
	movq	(%rax), %rax
	movq	(%rcx), %rcx
	movq	(%rdx), %rdx
	movq	(%r8), %r8
	movq	(%r9), %r9
	movq	(%rbx), %rbx
	movq	(%rax), %rax
	movq	(%rcx), %rcx
	movq	(%rdx), %rdx
	movq	(%r8), %r8
	movq	(%r9), %r9
	movq	(%rbx), %rbx
	movq	(%rax), %rax
	movq	(%rcx), %rcx
	movq	(%rdx), %rdx
	movq	(%r8), %r8
	movq	(%r9), %r9
	movq	(%rbx), %rbx
	movq	(%rax), %rax
	movq	(%rcx), %rcx
	movq	(%rdx), %rdx
	movq	(%r8), %r8
	movq	(%r9), %r9
	movq	(%rbx), %rbx
	movq	(%rax), %rax
	movq	(%rcx), %rcx
	movq	(%rdx), %rdx
	movq	(%r8), %r8
	movq	(%r9), %r9
	movq	(%rbx), %rbx
	movq	(%rax), %rax
	movq	(%rcx), %rcx
	movq	(%rdx), %rdx
	movq	(%r8), %r14
	movq	(%r9), %r15
	movq	(%rbx), %r8
	movq	(%rax), %r9
	movq	(%rcx), %r10
	movq	(%rdx), %r11
	movq	(%r14), %r14
	movq	(%r15), %r15
	addq	$-1, %rdi
	jne	.LBB5_6
.LBB5_7:
	movq	%r8, mem_benchmark_5.sp0(%rip)
	movq	%r9, mem_benchmark_5.sp1(%rip)
	movq	%r10, mem_benchmark_5.sp2(%rip)
	movq	%r11, mem_benchmark_5.sp3(%rip)
	movq	%r14, mem_benchmark_5.sp4(%rip)
	movq	%r15, mem_benchmark_5.sp5(%rip)
	movq	(%rsi), %rax
	movq	%rax, mem_benchmark_5.addr_save(%rip)
	movb	$1, mem_benchmark_rerun(%rip)
	popq	%rbx
	popq	%r14
	popq	%r15
	popq	%rbp
	.cfi_def_cfa %rsp, 8
	retq
.Lfunc_end5:
	.size	mem_benchmark_5, .Lfunc_end5-mem_benchmark_5
	.cfi_endproc
                                        # -- End function
	.globl	mem_benchmark_6         # -- Begin function mem_benchmark_6
	.p2align	4, 0x90
	.type	mem_benchmark_6,@function
mem_benchmark_6:                        # @mem_benchmark_6
	.cfi_startproc
# %bb.0:
	pushq	%rbp
	.cfi_def_cfa_offset 16
	.cfi_offset %rbp, -16
	movq	%rsp, %rbp
	.cfi_def_cfa_register %rbp
	pushq	%r15
	pushq	%r14
	pushq	%r13
	pushq	%r12
	pushq	%rbx
	.cfi_offset %rbx, -56
	.cfi_offset %r12, -48
	.cfi_offset %r13, -40
	.cfi_offset %r14, -32
	.cfi_offset %r15, -24
	cmpb	$1, mem_benchmark_rerun(%rip)
	jne	.LBB6_3
# %bb.1:
	movq	mem_benchmark_6.addr_save(%rip), %rax
	leaq	16(%rsi), %rcx
	leaq	24(%rsi), %rdx
	leaq	32(%rsi), %r10
	leaq	40(%rsi), %r11
	leaq	48(%rsi), %rbx
	leaq	56(%rsi), %r14
	cmpq	(%rsi), %rax
	movl	$mem_benchmark_6.sp0, %eax
	cmovneq	%rcx, %rax
	movq	(%rax), %r8
	movl	$mem_benchmark_6.sp1, %eax
	cmovneq	%rdx, %rax
	movq	(%rax), %r9
	movl	$mem_benchmark_6.sp2, %eax
	cmovneq	%r10, %rax
	movq	(%rax), %r10
	movl	$mem_benchmark_6.sp3, %eax
	cmovneq	%r11, %rax
	movq	(%rax), %r11
	movl	$mem_benchmark_6.sp4, %eax
	cmovneq	%rbx, %rax
	movq	(%rax), %r15
	movl	$mem_benchmark_6.sp5, %eax
	cmovneq	%r14, %rax
	movq	(%rax), %r14
	jne	.LBB6_4
# %bb.2:
	movl	$mem_benchmark_6.sp6, %eax
	jmp	.LBB6_5
.LBB6_3:
	movq	16(%rsi), %r8
	movq	24(%rsi), %r9
	movq	32(%rsi), %r10
	movq	40(%rsi), %r11
	movq	48(%rsi), %r15
	movq	56(%rsi), %r14
.LBB6_4:
	leaq	64(%rsi), %rax
.LBB6_5:
	movq	(%rax), %r12
	testq	%rdi, %rdi
	je	.LBB6_7
	.p2align	4, 0x90
.LBB6_6:                                # =>This Inner Loop Header: Depth=1
	movq	(%r8), %rbx
	movq	(%r9), %rcx
	movq	(%r10), %rdx
	movq	(%r11), %rax
	movq	(%r15), %r8
	movq	(%r14), %r9
	movq	(%r12), %r10
	movq	(%rbx), %rbx
	movq	(%rcx), %rcx
	movq	(%rdx), %rdx
	movq	(%rax), %rax
	movq	(%r8), %r8
	movq	(%r9), %r9
	movq	(%r10), %r10
	movq	(%rbx), %rbx
	movq	(%rcx), %rcx
	movq	(%rdx), %rdx
	movq	(%rax), %rax
	movq	(%r8), %r8
	movq	(%r9), %r9
	movq	(%r10), %r10
	movq	(%rbx), %rbx
	movq	(%rcx), %rcx
	movq	(%rdx), %rdx
	movq	(%rax), %rax
	movq	(%r8), %r8
	movq	(%r9), %r9
	movq	(%r10), %r10
	movq	(%rbx), %rbx
	movq	(%rcx), %rcx
	movq	(%rdx), %rdx
	movq	(%rax), %rax
	movq	(%r8), %r8
	movq	(%r9), %r9
	movq	(%r10), %r10
	movq	(%rbx), %rbx
	movq	(%rcx), %rcx
	movq	(%rdx), %rdx
	movq	(%rax), %rax
	movq	(%r8), %r8
	movq	(%r9), %r9
	movq	(%r10), %r10
	movq	(%rbx), %rbx
	movq	(%rcx), %rcx
	movq	(%rdx), %rdx
	movq	(%rax), %rax
	movq	(%r8), %r8
	movq	(%r9), %r9
	movq	(%r10), %r10
	movq	(%rbx), %rbx
	movq	(%rcx), %rcx
	movq	(%rdx), %rdx
	movq	(%rax), %rax
	movq	(%r8), %r8
	movq	(%r9), %r9
	movq	(%r10), %r10
	movq	(%rbx), %rbx
	movq	(%rcx), %rcx
	movq	(%rdx), %rdx
	movq	(%rax), %rax
	movq	(%r8), %r8
	movq	(%r9), %r9
	movq	(%r10), %r10
	movq	(%rbx), %rbx
	movq	(%rcx), %rcx
	movq	(%rdx), %rdx
	movq	(%rax), %rax
	movq	(%r8), %r8
	movq	(%r9), %r9
	movq	(%r10), %r10
	movq	(%rbx), %rbx
	movq	(%rcx), %rcx
	movq	(%rdx), %rdx
	movq	(%rax), %rax
	movq	(%r8), %r8
	movq	(%r9), %r9
	movq	(%r10), %r10
	movq	(%rbx), %rbx
	movq	(%rcx), %rcx
	movq	(%rdx), %rdx
	movq	(%rax), %rax
	movq	(%r8), %r8
	movq	(%r9), %r9
	movq	(%r10), %r10
	movq	(%rbx), %rbx
	movq	(%rcx), %rcx
	movq	(%rdx), %rdx
	movq	(%rax), %rax
	movq	(%r8), %r8
	movq	(%r9), %r9
	movq	(%r10), %r10
	movq	(%rbx), %rbx
	movq	(%rcx), %rcx
	movq	(%rdx), %rdx
	movq	(%rax), %rax
	movq	(%r8), %r8
	movq	(%r9), %r9
	movq	(%r10), %r10
	movq	(%rbx), %rbx
	movq	(%rcx), %rcx
	movq	(%rdx), %rdx
	movq	(%rax), %rax
	movq	(%r8), %r8
	movq	(%r9), %r9
	movq	(%r10), %r10
	movq	(%rbx), %rbx
	movq	(%rcx), %rcx
	movq	(%rdx), %rdx
	movq	(%rax), %rax
	movq	(%r8), %r8
	movq	(%r9), %r9
	movq	(%r10), %r10
	movq	(%rbx), %rbx
	movq	(%rcx), %rcx
	movq	(%rdx), %rdx
	movq	(%rax), %rax
	movq	(%r8), %r8
	movq	(%r9), %r9
	movq	(%r10), %r10
	movq	(%rbx), %rbx
	movq	(%rcx), %rcx
	movq	(%rdx), %rdx
	movq	(%rax), %rax
	movq	(%r8), %r8
	movq	(%r9), %r9
	movq	(%r10), %r10
	movq	(%rbx), %rbx
	movq	(%rcx), %rcx
	movq	(%rdx), %rdx
	movq	(%rax), %rax
	movq	(%r8), %r8
	movq	(%r9), %r9
	movq	(%r10), %r10
	movq	(%rbx), %rbx
	movq	(%rcx), %rcx
	movq	(%rdx), %rdx
	movq	(%rax), %rax
	movq	(%r8), %r8
	movq	(%r9), %r9
	movq	(%r10), %r10
	movq	(%rbx), %rbx
	movq	(%rcx), %rcx
	movq	(%rdx), %rdx
	movq	(%rax), %rax
	movq	(%r8), %r8
	movq	(%r9), %r9
	movq	(%r10), %r10
	movq	(%rbx), %rbx
	movq	(%rcx), %rcx
	movq	(%rdx), %rdx
	movq	(%rax), %rax
	movq	(%r8), %r8
	movq	(%r9), %r9
	movq	(%r10), %r10
	movq	(%rbx), %rbx
	movq	(%rcx), %rcx
	movq	(%rdx), %rdx
	movq	(%rax), %rax
	movq	(%r8), %r8
	movq	(%r9), %r9
	movq	(%r10), %r10
	movq	(%rbx), %rbx
	movq	(%rcx), %rcx
	movq	(%rdx), %rdx
	movq	(%rax), %rax
	movq	(%r8), %r8
	movq	(%r9), %r9
	movq	(%r10), %r10
	movq	(%rbx), %rbx
	movq	(%rcx), %rcx
	movq	(%rdx), %rdx
	movq	(%rax), %rax
	movq	(%r8), %r8
	movq	(%r9), %r9
	movq	(%r10), %r10
	movq	(%rbx), %rbx
	movq	(%rcx), %rcx
	movq	(%rdx), %rdx
	movq	(%rax), %rax
	movq	(%r8), %r8
	movq	(%r9), %r9
	movq	(%r10), %r10
	movq	(%rbx), %rbx
	movq	(%rcx), %rcx
	movq	(%rdx), %rdx
	movq	(%rax), %rax
	movq	(%r8), %r8
	movq	(%r9), %r9
	movq	(%r10), %r10
	movq	(%rbx), %rbx
	movq	(%rcx), %rcx
	movq	(%rdx), %rdx
	movq	(%rax), %rax
	movq	(%r8), %r8
	movq	(%r9), %r9
	movq	(%r10), %r10
	movq	(%rbx), %rbx
	movq	(%rcx), %rcx
	movq	(%rdx), %rdx
	movq	(%rax), %rax
	movq	(%r8), %r8
	movq	(%r9), %r9
	movq	(%r10), %r10
	movq	(%rbx), %rbx
	movq	(%rcx), %rcx
	movq	(%rdx), %rdx
	movq	(%rax), %rax
	movq	(%r8), %r8
	movq	(%r9), %r9
	movq	(%r10), %r10
	movq	(%rbx), %rbx
	movq	(%rcx), %rcx
	movq	(%rdx), %rdx
	movq	(%rax), %rax
	movq	(%r8), %r8
	movq	(%r9), %r9
	movq	(%r10), %r10
	movq	(%rbx), %rbx
	movq	(%rcx), %rcx
	movq	(%rdx), %rdx
	movq	(%rax), %rax
	movq	(%r8), %r8
	movq	(%r9), %r9
	movq	(%r10), %r10
	movq	(%rbx), %rbx
	movq	(%rcx), %rcx
	movq	(%rdx), %rdx
	movq	(%rax), %rax
	movq	(%r8), %r8
	movq	(%r9), %r9
	movq	(%r10), %r10
	movq	(%rbx), %rbx
	movq	(%rcx), %rcx
	movq	(%rdx), %rdx
	movq	(%rax), %rax
	movq	(%r8), %r8
	movq	(%r9), %r9
	movq	(%r10), %r10
	movq	(%rbx), %rbx
	movq	(%rcx), %rcx
	movq	(%rdx), %rdx
	movq	(%rax), %rax
	movq	(%r8), %r8
	movq	(%r9), %r9
	movq	(%r10), %r10
	movq	(%rbx), %rbx
	movq	(%rcx), %rcx
	movq	(%rdx), %rdx
	movq	(%rax), %rax
	movq	(%r8), %r8
	movq	(%r9), %r9
	movq	(%r10), %r10
	movq	(%rbx), %rbx
	movq	(%rcx), %rcx
	movq	(%rdx), %rdx
	movq	(%rax), %rax
	movq	(%r8), %r8
	movq	(%r9), %r9
	movq	(%r10), %r10
	movq	(%rbx), %rbx
	movq	(%rcx), %rcx
	movq	(%rdx), %rdx
	movq	(%rax), %rax
	movq	(%r8), %r8
	movq	(%r9), %r9
	movq	(%r10), %r10
	movq	(%rbx), %rbx
	movq	(%rcx), %rcx
	movq	(%rdx), %rdx
	movq	(%rax), %rax
	movq	(%r8), %r8
	movq	(%r9), %r9
	movq	(%r10), %r10
	movq	(%rbx), %rbx
	movq	(%rcx), %rcx
	movq	(%rdx), %rdx
	movq	(%rax), %rax
	movq	(%r8), %r8
	movq	(%r9), %r9
	movq	(%r10), %r10
	movq	(%rbx), %rbx
	movq	(%rcx), %rcx
	movq	(%rdx), %rdx
	movq	(%rax), %rax
	movq	(%r8), %r8
	movq	(%r9), %r9
	movq	(%r10), %r10
	movq	(%rbx), %rbx
	movq	(%rcx), %rcx
	movq	(%rdx), %rdx
	movq	(%rax), %rax
	movq	(%r8), %r8
	movq	(%r9), %r9
	movq	(%r10), %r10
	movq	(%rbx), %rbx
	movq	(%rcx), %rcx
	movq	(%rdx), %rdx
	movq	(%rax), %rax
	movq	(%r8), %r8
	movq	(%r9), %r9
	movq	(%r10), %r10
	movq	(%rbx), %rbx
	movq	(%rcx), %rcx
	movq	(%rdx), %rdx
	movq	(%rax), %rax
	movq	(%r8), %r8
	movq	(%r9), %r9
	movq	(%r10), %r10
	movq	(%rbx), %rbx
	movq	(%rcx), %rcx
	movq	(%rdx), %rdx
	movq	(%rax), %rax
	movq	(%r8), %r8
	movq	(%r9), %r9
	movq	(%r10), %r10
	movq	(%rbx), %rbx
	movq	(%rcx), %rcx
	movq	(%rdx), %rdx
	movq	(%rax), %rax
	movq	(%r8), %r8
	movq	(%r9), %r9
	movq	(%r10), %r10
	movq	(%rbx), %rbx
	movq	(%rcx), %rcx
	movq	(%rdx), %rdx
	movq	(%rax), %rax
	movq	(%r8), %r8
	movq	(%r9), %r9
	movq	(%r10), %r10
	movq	(%rbx), %rbx
	movq	(%rcx), %rcx
	movq	(%rdx), %rdx
	movq	(%rax), %rax
	movq	(%r8), %r8
	movq	(%r9), %r9
	movq	(%r10), %r10
	movq	(%rbx), %rbx
	movq	(%rcx), %rcx
	movq	(%rdx), %rdx
	movq	(%rax), %rax
	movq	(%r8), %r8
	movq	(%r9), %r9
	movq	(%r10), %r10
	movq	(%rbx), %rbx
	movq	(%rcx), %rcx
	movq	(%rdx), %rdx
	movq	(%rax), %rax
	movq	(%r8), %r8
	movq	(%r9), %r9
	movq	(%r10), %r10
	movq	(%rbx), %rbx
	movq	(%rcx), %rcx
	movq	(%rdx), %rdx
	movq	(%rax), %rax
	movq	(%r8), %r8
	movq	(%r9), %r9
	movq	(%r10), %r10
	movq	(%rbx), %rbx
	movq	(%rcx), %rcx
	movq	(%rdx), %rdx
	movq	(%rax), %rax
	movq	(%r8), %r8
	movq	(%r9), %r9
	movq	(%r10), %r10
	movq	(%rbx), %rbx
	movq	(%rcx), %rcx
	movq	(%rdx), %rdx
	movq	(%rax), %rax
	movq	(%r8), %r8
	movq	(%r9), %r9
	movq	(%r10), %r10
	movq	(%rbx), %rbx
	movq	(%rcx), %rcx
	movq	(%rdx), %rdx
	movq	(%rax), %rax
	movq	(%r8), %r8
	movq	(%r9), %r9
	movq	(%r10), %r10
	movq	(%rbx), %rbx
	movq	(%rcx), %rcx
	movq	(%rdx), %rdx
	movq	(%rax), %rax
	movq	(%r8), %r8
	movq	(%r9), %r9
	movq	(%r10), %r10
	movq	(%rbx), %rbx
	movq	(%rcx), %rcx
	movq	(%rdx), %rdx
	movq	(%rax), %rax
	movq	(%r8), %r8
	movq	(%r9), %r9
	movq	(%r10), %r10
	movq	(%rbx), %rbx
	movq	(%rcx), %rcx
	movq	(%rdx), %rdx
	movq	(%rax), %rax
	movq	(%r8), %r8
	movq	(%r9), %r9
	movq	(%r10), %r10
	movq	(%rbx), %rbx
	movq	(%rcx), %rcx
	movq	(%rdx), %rdx
	movq	(%rax), %rax
	movq	(%r8), %r8
	movq	(%r9), %r9
	movq	(%r10), %r10
	movq	(%rbx), %rbx
	movq	(%rcx), %rcx
	movq	(%rdx), %rdx
	movq	(%rax), %rax
	movq	(%r8), %r8
	movq	(%r9), %r9
	movq	(%r10), %r10
	movq	(%rbx), %rbx
	movq	(%rcx), %rcx
	movq	(%rdx), %rdx
	movq	(%rax), %rax
	movq	(%r8), %r8
	movq	(%r9), %r9
	movq	(%r10), %r10
	movq	(%rbx), %rbx
	movq	(%rcx), %rcx
	movq	(%rdx), %rdx
	movq	(%rax), %rax
	movq	(%r8), %r8
	movq	(%r9), %r9
	movq	(%r10), %r10
	movq	(%rbx), %rbx
	movq	(%rcx), %rcx
	movq	(%rdx), %rdx
	movq	(%rax), %rax
	movq	(%r8), %r8
	movq	(%r9), %r9
	movq	(%r10), %r10
	movq	(%rbx), %rbx
	movq	(%rcx), %rcx
	movq	(%rdx), %rdx
	movq	(%rax), %rax
	movq	(%r8), %r8
	movq	(%r9), %r9
	movq	(%r10), %r10
	movq	(%rbx), %rbx
	movq	(%rcx), %rcx
	movq	(%rdx), %rdx
	movq	(%rax), %rax
	movq	(%r8), %r8
	movq	(%r9), %r9
	movq	(%r10), %r10
	movq	(%rbx), %rbx
	movq	(%rcx), %rcx
	movq	(%rdx), %rdx
	movq	(%rax), %rax
	movq	(%r8), %r8
	movq	(%r9), %r9
	movq	(%r10), %r10
	movq	(%rbx), %rbx
	movq	(%rcx), %rcx
	movq	(%rdx), %rdx
	movq	(%rax), %rax
	movq	(%r8), %r8
	movq	(%r9), %r9
	movq	(%r10), %r10
	movq	(%rbx), %rbx
	movq	(%rcx), %rcx
	movq	(%rdx), %rdx
	movq	(%rax), %rax
	movq	(%r8), %r8
	movq	(%r9), %r9
	movq	(%r10), %r10
	movq	(%rbx), %rbx
	movq	(%rcx), %rcx
	movq	(%rdx), %rdx
	movq	(%rax), %rax
	movq	(%r8), %r8
	movq	(%r9), %r9
	movq	(%r10), %r10
	movq	(%rbx), %rbx
	movq	(%rcx), %rcx
	movq	(%rdx), %rdx
	movq	(%rax), %rax
	movq	(%r8), %r8
	movq	(%r9), %r9
	movq	(%r10), %r10
	movq	(%rbx), %rbx
	movq	(%rcx), %rcx
	movq	(%rdx), %rdx
	movq	(%rax), %rax
	movq	(%r8), %r8
	movq	(%r9), %r9
	movq	(%r10), %r10
	movq	(%rbx), %rbx
	movq	(%rcx), %rcx
	movq	(%rdx), %rdx
	movq	(%rax), %rax
	movq	(%r8), %r8
	movq	(%r9), %r9
	movq	(%r10), %r10
	movq	(%rbx), %rbx
	movq	(%rcx), %rcx
	movq	(%rdx), %rdx
	movq	(%rax), %rax
	movq	(%r8), %r8
	movq	(%r9), %r9
	movq	(%r10), %r10
	movq	(%rbx), %rbx
	movq	(%rcx), %rcx
	movq	(%rdx), %rdx
	movq	(%rax), %rax
	movq	(%r8), %r8
	movq	(%r9), %r9
	movq	(%r10), %r10
	movq	(%rbx), %rbx
	movq	(%rcx), %rcx
	movq	(%rdx), %rdx
	movq	(%rax), %rax
	movq	(%r8), %r8
	movq	(%r9), %r9
	movq	(%r10), %r10
	movq	(%rbx), %rbx
	movq	(%rcx), %rcx
	movq	(%rdx), %rdx
	movq	(%rax), %rax
	movq	(%r8), %r8
	movq	(%r9), %r9
	movq	(%r10), %r10
	movq	(%rbx), %rbx
	movq	(%rcx), %rcx
	movq	(%rdx), %rdx
	movq	(%rax), %rax
	movq	(%r8), %r8
	movq	(%r9), %r9
	movq	(%r10), %r10
	movq	(%rbx), %rbx
	movq	(%rcx), %rcx
	movq	(%rdx), %rdx
	movq	(%rax), %rax
	movq	(%r8), %r8
	movq	(%r9), %r9
	movq	(%r10), %r10
	movq	(%rbx), %rbx
	movq	(%rcx), %rcx
	movq	(%rdx), %rdx
	movq	(%rax), %rax
	movq	(%r8), %r8
	movq	(%r9), %r9
	movq	(%r10), %r10
	movq	(%rbx), %rbx
	movq	(%rcx), %rcx
	movq	(%rdx), %rdx
	movq	(%rax), %rax
	movq	(%r8), %r8
	movq	(%r9), %r9
	movq	(%r10), %r10
	movq	(%rbx), %rbx
	movq	(%rcx), %rcx
	movq	(%rdx), %rdx
	movq	(%rax), %rax
	movq	(%r8), %r8
	movq	(%r9), %r9
	movq	(%r10), %r10
	movq	(%rbx), %rbx
	movq	(%rcx), %rcx
	movq	(%rdx), %rdx
	movq	(%rax), %rax
	movq	(%r8), %r8
	movq	(%r9), %r9
	movq	(%r10), %r10
	movq	(%rbx), %rbx
	movq	(%rcx), %rcx
	movq	(%rdx), %rdx
	movq	(%rax), %rax
	movq	(%r8), %r8
	movq	(%r9), %r9
	movq	(%r10), %r10
	movq	(%rbx), %rbx
	movq	(%rcx), %rcx
	movq	(%rdx), %rdx
	movq	(%rax), %rax
	movq	(%r8), %r8
	movq	(%r9), %r9
	movq	(%r10), %r10
	movq	(%rbx), %rbx
	movq	(%rcx), %rcx
	movq	(%rdx), %rdx
	movq	(%rax), %rax
	movq	(%r8), %r8
	movq	(%r9), %r9
	movq	(%r10), %r10
	movq	(%rbx), %rbx
	movq	(%rcx), %rcx
	movq	(%rdx), %rdx
	movq	(%rax), %rax
	movq	(%r8), %r8
	movq	(%r9), %r9
	movq	(%r10), %r10
	movq	(%rbx), %rbx
	movq	(%rcx), %rcx
	movq	(%rdx), %rdx
	movq	(%rax), %rax
	movq	(%r8), %r8
	movq	(%r9), %r9
	movq	(%r10), %r10
	movq	(%rbx), %rbx
	movq	(%rcx), %rcx
	movq	(%rdx), %rdx
	movq	(%rax), %rax
	movq	(%r8), %r8
	movq	(%r9), %r9
	movq	(%r10), %r10
	movq	(%rbx), %rbx
	movq	(%rcx), %rcx
	movq	(%rdx), %rdx
	movq	(%rax), %rax
	movq	(%r8), %r8
	movq	(%r9), %r9
	movq	(%r10), %r10
	movq	(%rbx), %rbx
	movq	(%rcx), %rcx
	movq	(%rdx), %rdx
	movq	(%rax), %rax
	movq	(%r8), %r8
	movq	(%r9), %r9
	movq	(%r10), %r10
	movq	(%rbx), %rbx
	movq	(%rcx), %rcx
	movq	(%rdx), %rdx
	movq	(%rax), %rax
	movq	(%r8), %r8
	movq	(%r9), %r9
	movq	(%r10), %r10
	movq	(%rbx), %rbx
	movq	(%rcx), %rcx
	movq	(%rdx), %rdx
	movq	(%rax), %rax
	movq	(%r8), %r8
	movq	(%r9), %r9
	movq	(%r10), %r10
	movq	(%rbx), %rbx
	movq	(%rcx), %rcx
	movq	(%rdx), %rdx
	movq	(%rax), %rax
	movq	(%r8), %r8
	movq	(%r9), %r9
	movq	(%r10), %r10
	movq	(%rbx), %rbx
	movq	(%rcx), %rcx
	movq	(%rdx), %rdx
	movq	(%rax), %rax
	movq	(%r8), %r8
	movq	(%r9), %r9
	movq	(%r10), %r10
	movq	(%rbx), %rbx
	movq	(%rcx), %rcx
	movq	(%rdx), %rdx
	movq	(%rax), %rax
	movq	(%r8), %r8
	movq	(%r9), %r9
	movq	(%r10), %r10
	movq	(%rbx), %rbx
	movq	(%rcx), %rcx
	movq	(%rdx), %rdx
	movq	(%rax), %rax
	movq	(%r8), %r8
	movq	(%r9), %r9
	movq	(%r10), %r10
	movq	(%rbx), %rbx
	movq	(%rcx), %rcx
	movq	(%rdx), %rdx
	movq	(%rax), %rax
	movq	(%r8), %r8
	movq	(%r9), %r9
	movq	(%r10), %r10
	movq	(%rbx), %rbx
	movq	(%rcx), %rcx
	movq	(%rdx), %rdx
	movq	(%rax), %rax
	movq	(%r8), %r8
	movq	(%r9), %r9
	movq	(%r10), %r10
	movq	(%rbx), %rbx
	movq	(%rcx), %rcx
	movq	(%rdx), %rdx
	movq	(%rax), %rax
	movq	(%r8), %r8
	movq	(%r9), %r9
	movq	(%r10), %r10
	movq	(%rbx), %rbx
	movq	(%rcx), %rcx
	movq	(%rdx), %rdx
	movq	(%rax), %rax
	movq	(%r8), %r14
	movq	(%r9), %r12
	movq	(%r10), %r13
	movq	(%rbx), %r8
	movq	(%rcx), %r9
	movq	(%rdx), %r10
	movq	(%rax), %r11
	movq	(%r14), %r15
	movq	(%r12), %r14
	movq	(%r13), %r12
	addq	$-1, %rdi
	jne	.LBB6_6
.LBB6_7:
	movq	%r8, mem_benchmark_6.sp0(%rip)
	movq	%r9, mem_benchmark_6.sp1(%rip)
	movq	%r10, mem_benchmark_6.sp2(%rip)
	movq	%r11, mem_benchmark_6.sp3(%rip)
	movq	%r15, mem_benchmark_6.sp4(%rip)
	movq	%r14, mem_benchmark_6.sp5(%rip)
	movq	%r12, mem_benchmark_6.sp6(%rip)
	movq	(%rsi), %rax
	movq	%rax, mem_benchmark_6.addr_save(%rip)
	movb	$1, mem_benchmark_rerun(%rip)
	popq	%rbx
	popq	%r12
	popq	%r13
	popq	%r14
	popq	%r15
	popq	%rbp
	.cfi_def_cfa %rsp, 8
	retq
.Lfunc_end6:
	.size	mem_benchmark_6, .Lfunc_end6-mem_benchmark_6
	.cfi_endproc
                                        # -- End function
	.globl	mem_benchmark_7         # -- Begin function mem_benchmark_7
	.p2align	4, 0x90
	.type	mem_benchmark_7,@function
mem_benchmark_7:                        # @mem_benchmark_7
	.cfi_startproc
# %bb.0:
	pushq	%rbp
	.cfi_def_cfa_offset 16
	.cfi_offset %rbp, -16
	movq	%rsp, %rbp
	.cfi_def_cfa_register %rbp
	pushq	%r15
	pushq	%r14
	pushq	%r13
	pushq	%r12
	pushq	%rbx
	.cfi_offset %rbx, -56
	.cfi_offset %r12, -48
	.cfi_offset %r13, -40
	.cfi_offset %r14, -32
	.cfi_offset %r15, -24
	cmpb	$1, mem_benchmark_rerun(%rip)
	jne	.LBB7_3
# %bb.1:
	movq	mem_benchmark_7.addr_save(%rip), %rax
	leaq	16(%rsi), %rcx
	leaq	24(%rsi), %rdx
	leaq	32(%rsi), %rbx
	leaq	40(%rsi), %r11
	leaq	48(%rsi), %r14
	leaq	56(%rsi), %r15
	leaq	64(%rsi), %r12
	cmpq	(%rsi), %rax
	movl	$mem_benchmark_7.sp0, %eax
	cmovneq	%rcx, %rax
	movq	(%rax), %r8
	movl	$mem_benchmark_7.sp1, %eax
	cmovneq	%rdx, %rax
	movq	(%rax), %r9
	movl	$mem_benchmark_7.sp2, %eax
	cmovneq	%rbx, %rax
	movq	(%rax), %r10
	movl	$mem_benchmark_7.sp3, %eax
	cmovneq	%r11, %rax
	movq	(%rax), %r11
	movl	$mem_benchmark_7.sp4, %eax
	cmovneq	%r14, %rax
	movq	(%rax), %r14
	movl	$mem_benchmark_7.sp5, %eax
	cmovneq	%r15, %rax
	movq	(%rax), %r15
	movl	$mem_benchmark_7.sp6, %eax
	cmovneq	%r12, %rax
	movq	(%rax), %r12
	jne	.LBB7_4
# %bb.2:
	movl	$mem_benchmark_7.sp7, %ebx
	jmp	.LBB7_5
.LBB7_3:
	movq	16(%rsi), %r8
	movq	24(%rsi), %r9
	movq	32(%rsi), %r10
	movq	40(%rsi), %r11
	movq	48(%rsi), %r14
	movq	56(%rsi), %r15
	movq	64(%rsi), %r12
.LBB7_4:
	leaq	72(%rsi), %rbx
.LBB7_5:
	movq	(%rbx), %r13
	testq	%rdi, %rdi
	je	.LBB7_7
	.p2align	4, 0x90
.LBB7_6:                                # =>This Inner Loop Header: Depth=1
	movq	(%r8), %rcx
	movq	(%r9), %rdx
	movq	(%r10), %rax
	movq	(%r11), %rbx
	movq	(%r14), %r8
	movq	(%r15), %r9
	movq	(%r12), %r10
	movq	(%r13), %r11
	movq	(%rcx), %rcx
	movq	(%rdx), %rdx
	movq	(%rax), %rax
	movq	(%rbx), %rbx
	movq	(%r8), %r8
	movq	(%r9), %r9
	movq	(%r10), %r10
	movq	(%r11), %r11
	movq	(%rcx), %rcx
	movq	(%rdx), %rdx
	movq	(%rax), %rax
	movq	(%rbx), %rbx
	movq	(%r8), %r8
	movq	(%r9), %r9
	movq	(%r10), %r10
	movq	(%r11), %r11
	movq	(%rcx), %rcx
	movq	(%rdx), %rdx
	movq	(%rax), %rax
	movq	(%rbx), %rbx
	movq	(%r8), %r8
	movq	(%r9), %r9
	movq	(%r10), %r10
	movq	(%r11), %r11
	movq	(%rcx), %rcx
	movq	(%rdx), %rdx
	movq	(%rax), %rax
	movq	(%rbx), %rbx
	movq	(%r8), %r8
	movq	(%r9), %r9
	movq	(%r10), %r10
	movq	(%r11), %r11
	movq	(%rcx), %rcx
	movq	(%rdx), %rdx
	movq	(%rax), %rax
	movq	(%rbx), %rbx
	movq	(%r8), %r8
	movq	(%r9), %r9
	movq	(%r10), %r10
	movq	(%r11), %r11
	movq	(%rcx), %rcx
	movq	(%rdx), %rdx
	movq	(%rax), %rax
	movq	(%rbx), %rbx
	movq	(%r8), %r8
	movq	(%r9), %r9
	movq	(%r10), %r10
	movq	(%r11), %r11
	movq	(%rcx), %rcx
	movq	(%rdx), %rdx
	movq	(%rax), %rax
	movq	(%rbx), %rbx
	movq	(%r8), %r8
	movq	(%r9), %r9
	movq	(%r10), %r10
	movq	(%r11), %r11
	movq	(%rcx), %rcx
	movq	(%rdx), %rdx
	movq	(%rax), %rax
	movq	(%rbx), %rbx
	movq	(%r8), %r8
	movq	(%r9), %r9
	movq	(%r10), %r10
	movq	(%r11), %r11
	movq	(%rcx), %rcx
	movq	(%rdx), %rdx
	movq	(%rax), %rax
	movq	(%rbx), %rbx
	movq	(%r8), %r8
	movq	(%r9), %r9
	movq	(%r10), %r10
	movq	(%r11), %r11
	movq	(%rcx), %rcx
	movq	(%rdx), %rdx
	movq	(%rax), %rax
	movq	(%rbx), %rbx
	movq	(%r8), %r8
	movq	(%r9), %r9
	movq	(%r10), %r10
	movq	(%r11), %r11
	movq	(%rcx), %rcx
	movq	(%rdx), %rdx
	movq	(%rax), %rax
	movq	(%rbx), %rbx
	movq	(%r8), %r8
	movq	(%r9), %r9
	movq	(%r10), %r10
	movq	(%r11), %r11
	movq	(%rcx), %rcx
	movq	(%rdx), %rdx
	movq	(%rax), %rax
	movq	(%rbx), %rbx
	movq	(%r8), %r8
	movq	(%r9), %r9
	movq	(%r10), %r10
	movq	(%r11), %r11
	movq	(%rcx), %rcx
	movq	(%rdx), %rdx
	movq	(%rax), %rax
	movq	(%rbx), %rbx
	movq	(%r8), %r8
	movq	(%r9), %r9
	movq	(%r10), %r10
	movq	(%r11), %r11
	movq	(%rcx), %rcx
	movq	(%rdx), %rdx
	movq	(%rax), %rax
	movq	(%rbx), %rbx
	movq	(%r8), %r8
	movq	(%r9), %r9
	movq	(%r10), %r10
	movq	(%r11), %r11
	movq	(%rcx), %rcx
	movq	(%rdx), %rdx
	movq	(%rax), %rax
	movq	(%rbx), %rbx
	movq	(%r8), %r8
	movq	(%r9), %r9
	movq	(%r10), %r10
	movq	(%r11), %r11
	movq	(%rcx), %rcx
	movq	(%rdx), %rdx
	movq	(%rax), %rax
	movq	(%rbx), %rbx
	movq	(%r8), %r8
	movq	(%r9), %r9
	movq	(%r10), %r10
	movq	(%r11), %r11
	movq	(%rcx), %rcx
	movq	(%rdx), %rdx
	movq	(%rax), %rax
	movq	(%rbx), %rbx
	movq	(%r8), %r8
	movq	(%r9), %r9
	movq	(%r10), %r10
	movq	(%r11), %r11
	movq	(%rcx), %rcx
	movq	(%rdx), %rdx
	movq	(%rax), %rax
	movq	(%rbx), %rbx
	movq	(%r8), %r8
	movq	(%r9), %r9
	movq	(%r10), %r10
	movq	(%r11), %r11
	movq	(%rcx), %rcx
	movq	(%rdx), %rdx
	movq	(%rax), %rax
	movq	(%rbx), %rbx
	movq	(%r8), %r8
	movq	(%r9), %r9
	movq	(%r10), %r10
	movq	(%r11), %r11
	movq	(%rcx), %rcx
	movq	(%rdx), %rdx
	movq	(%rax), %rax
	movq	(%rbx), %rbx
	movq	(%r8), %r8
	movq	(%r9), %r9
	movq	(%r10), %r10
	movq	(%r11), %r11
	movq	(%rcx), %rcx
	movq	(%rdx), %rdx
	movq	(%rax), %rax
	movq	(%rbx), %rbx
	movq	(%r8), %r8
	movq	(%r9), %r9
	movq	(%r10), %r10
	movq	(%r11), %r11
	movq	(%rcx), %rcx
	movq	(%rdx), %rdx
	movq	(%rax), %rax
	movq	(%rbx), %rbx
	movq	(%r8), %r8
	movq	(%r9), %r9
	movq	(%r10), %r10
	movq	(%r11), %r11
	movq	(%rcx), %rcx
	movq	(%rdx), %rdx
	movq	(%rax), %rax
	movq	(%rbx), %rbx
	movq	(%r8), %r8
	movq	(%r9), %r9
	movq	(%r10), %r10
	movq	(%r11), %r11
	movq	(%rcx), %rcx
	movq	(%rdx), %rdx
	movq	(%rax), %rax
	movq	(%rbx), %rbx
	movq	(%r8), %r8
	movq	(%r9), %r9
	movq	(%r10), %r10
	movq	(%r11), %r11
	movq	(%rcx), %rcx
	movq	(%rdx), %rdx
	movq	(%rax), %rax
	movq	(%rbx), %rbx
	movq	(%r8), %r8
	movq	(%r9), %r9
	movq	(%r10), %r10
	movq	(%r11), %r11
	movq	(%rcx), %rcx
	movq	(%rdx), %rdx
	movq	(%rax), %rax
	movq	(%rbx), %rbx
	movq	(%r8), %r8
	movq	(%r9), %r9
	movq	(%r10), %r10
	movq	(%r11), %r11
	movq	(%rcx), %rcx
	movq	(%rdx), %rdx
	movq	(%rax), %rax
	movq	(%rbx), %rbx
	movq	(%r8), %r8
	movq	(%r9), %r9
	movq	(%r10), %r10
	movq	(%r11), %r11
	movq	(%rcx), %rcx
	movq	(%rdx), %rdx
	movq	(%rax), %rax
	movq	(%rbx), %rbx
	movq	(%r8), %r8
	movq	(%r9), %r9
	movq	(%r10), %r10
	movq	(%r11), %r11
	movq	(%rcx), %rcx
	movq	(%rdx), %rdx
	movq	(%rax), %rax
	movq	(%rbx), %rbx
	movq	(%r8), %r8
	movq	(%r9), %r9
	movq	(%r10), %r10
	movq	(%r11), %r11
	movq	(%rcx), %rcx
	movq	(%rdx), %rdx
	movq	(%rax), %rax
	movq	(%rbx), %rbx
	movq	(%r8), %r8
	movq	(%r9), %r9
	movq	(%r10), %r10
	movq	(%r11), %r11
	movq	(%rcx), %rcx
	movq	(%rdx), %rdx
	movq	(%rax), %rax
	movq	(%rbx), %rbx
	movq	(%r8), %r8
	movq	(%r9), %r9
	movq	(%r10), %r10
	movq	(%r11), %r11
	movq	(%rcx), %rcx
	movq	(%rdx), %rdx
	movq	(%rax), %rax
	movq	(%rbx), %rbx
	movq	(%r8), %r8
	movq	(%r9), %r9
	movq	(%r10), %r10
	movq	(%r11), %r11
	movq	(%rcx), %rcx
	movq	(%rdx), %rdx
	movq	(%rax), %rax
	movq	(%rbx), %rbx
	movq	(%r8), %r8
	movq	(%r9), %r9
	movq	(%r10), %r10
	movq	(%r11), %r11
	movq	(%rcx), %rcx
	movq	(%rdx), %rdx
	movq	(%rax), %rax
	movq	(%rbx), %rbx
	movq	(%r8), %r8
	movq	(%r9), %r9
	movq	(%r10), %r10
	movq	(%r11), %r11
	movq	(%rcx), %rcx
	movq	(%rdx), %rdx
	movq	(%rax), %rax
	movq	(%rbx), %rbx
	movq	(%r8), %r8
	movq	(%r9), %r9
	movq	(%r10), %r10
	movq	(%r11), %r11
	movq	(%rcx), %rcx
	movq	(%rdx), %rdx
	movq	(%rax), %rax
	movq	(%rbx), %rbx
	movq	(%r8), %r8
	movq	(%r9), %r9
	movq	(%r10), %r10
	movq	(%r11), %r11
	movq	(%rcx), %rcx
	movq	(%rdx), %rdx
	movq	(%rax), %rax
	movq	(%rbx), %rbx
	movq	(%r8), %r8
	movq	(%r9), %r9
	movq	(%r10), %r10
	movq	(%r11), %r11
	movq	(%rcx), %rcx
	movq	(%rdx), %rdx
	movq	(%rax), %rax
	movq	(%rbx), %rbx
	movq	(%r8), %r8
	movq	(%r9), %r9
	movq	(%r10), %r10
	movq	(%r11), %r11
	movq	(%rcx), %rcx
	movq	(%rdx), %rdx
	movq	(%rax), %rax
	movq	(%rbx), %rbx
	movq	(%r8), %r8
	movq	(%r9), %r9
	movq	(%r10), %r10
	movq	(%r11), %r11
	movq	(%rcx), %rcx
	movq	(%rdx), %rdx
	movq	(%rax), %rax
	movq	(%rbx), %rbx
	movq	(%r8), %r8
	movq	(%r9), %r9
	movq	(%r10), %r10
	movq	(%r11), %r11
	movq	(%rcx), %rcx
	movq	(%rdx), %rdx
	movq	(%rax), %rax
	movq	(%rbx), %rbx
	movq	(%r8), %r8
	movq	(%r9), %r9
	movq	(%r10), %r10
	movq	(%r11), %r11
	movq	(%rcx), %rcx
	movq	(%rdx), %rdx
	movq	(%rax), %rax
	movq	(%rbx), %rbx
	movq	(%r8), %r8
	movq	(%r9), %r9
	movq	(%r10), %r10
	movq	(%r11), %r11
	movq	(%rcx), %rcx
	movq	(%rdx), %rdx
	movq	(%rax), %rax
	movq	(%rbx), %rbx
	movq	(%r8), %r8
	movq	(%r9), %r9
	movq	(%r10), %r10
	movq	(%r11), %r11
	movq	(%rcx), %rcx
	movq	(%rdx), %rdx
	movq	(%rax), %rax
	movq	(%rbx), %rbx
	movq	(%r8), %r8
	movq	(%r9), %r9
	movq	(%r10), %r10
	movq	(%r11), %r11
	movq	(%rcx), %rcx
	movq	(%rdx), %rdx
	movq	(%rax), %rax
	movq	(%rbx), %rbx
	movq	(%r8), %r8
	movq	(%r9), %r9
	movq	(%r10), %r10
	movq	(%r11), %r11
	movq	(%rcx), %rcx
	movq	(%rdx), %rdx
	movq	(%rax), %rax
	movq	(%rbx), %rbx
	movq	(%r8), %r8
	movq	(%r9), %r9
	movq	(%r10), %r10
	movq	(%r11), %r11
	movq	(%rcx), %rcx
	movq	(%rdx), %rdx
	movq	(%rax), %rax
	movq	(%rbx), %rbx
	movq	(%r8), %r8
	movq	(%r9), %r9
	movq	(%r10), %r10
	movq	(%r11), %r11
	movq	(%rcx), %rcx
	movq	(%rdx), %rdx
	movq	(%rax), %rax
	movq	(%rbx), %rbx
	movq	(%r8), %r8
	movq	(%r9), %r9
	movq	(%r10), %r10
	movq	(%r11), %r11
	movq	(%rcx), %rcx
	movq	(%rdx), %rdx
	movq	(%rax), %rax
	movq	(%rbx), %rbx
	movq	(%r8), %r8
	movq	(%r9), %r9
	movq	(%r10), %r10
	movq	(%r11), %r11
	movq	(%rcx), %rcx
	movq	(%rdx), %rdx
	movq	(%rax), %rax
	movq	(%rbx), %rbx
	movq	(%r8), %r8
	movq	(%r9), %r9
	movq	(%r10), %r10
	movq	(%r11), %r11
	movq	(%rcx), %rcx
	movq	(%rdx), %rdx
	movq	(%rax), %rax
	movq	(%rbx), %rbx
	movq	(%r8), %r8
	movq	(%r9), %r9
	movq	(%r10), %r10
	movq	(%r11), %r11
	movq	(%rcx), %rcx
	movq	(%rdx), %rdx
	movq	(%rax), %rax
	movq	(%rbx), %rbx
	movq	(%r8), %r8
	movq	(%r9), %r9
	movq	(%r10), %r10
	movq	(%r11), %r11
	movq	(%rcx), %rcx
	movq	(%rdx), %rdx
	movq	(%rax), %rax
	movq	(%rbx), %rbx
	movq	(%r8), %r8
	movq	(%r9), %r9
	movq	(%r10), %r10
	movq	(%r11), %r11
	movq	(%rcx), %rcx
	movq	(%rdx), %rdx
	movq	(%rax), %rax
	movq	(%rbx), %rbx
	movq	(%r8), %r8
	movq	(%r9), %r9
	movq	(%r10), %r10
	movq	(%r11), %r11
	movq	(%rcx), %rcx
	movq	(%rdx), %rdx
	movq	(%rax), %rax
	movq	(%rbx), %rbx
	movq	(%r8), %r8
	movq	(%r9), %r9
	movq	(%r10), %r10
	movq	(%r11), %r11
	movq	(%rcx), %rcx
	movq	(%rdx), %rdx
	movq	(%rax), %rax
	movq	(%rbx), %rbx
	movq	(%r8), %r8
	movq	(%r9), %r9
	movq	(%r10), %r10
	movq	(%r11), %r11
	movq	(%rcx), %rcx
	movq	(%rdx), %rdx
	movq	(%rax), %rax
	movq	(%rbx), %rbx
	movq	(%r8), %r8
	movq	(%r9), %r9
	movq	(%r10), %r10
	movq	(%r11), %r11
	movq	(%rcx), %rcx
	movq	(%rdx), %rdx
	movq	(%rax), %rax
	movq	(%rbx), %rbx
	movq	(%r8), %r8
	movq	(%r9), %r9
	movq	(%r10), %r10
	movq	(%r11), %r11
	movq	(%rcx), %rcx
	movq	(%rdx), %rdx
	movq	(%rax), %rax
	movq	(%rbx), %rbx
	movq	(%r8), %r8
	movq	(%r9), %r9
	movq	(%r10), %r10
	movq	(%r11), %r11
	movq	(%rcx), %rcx
	movq	(%rdx), %rdx
	movq	(%rax), %rax
	movq	(%rbx), %rbx
	movq	(%r8), %r8
	movq	(%r9), %r9
	movq	(%r10), %r10
	movq	(%r11), %r11
	movq	(%rcx), %rcx
	movq	(%rdx), %rdx
	movq	(%rax), %rax
	movq	(%rbx), %rbx
	movq	(%r8), %r8
	movq	(%r9), %r9
	movq	(%r10), %r10
	movq	(%r11), %r11
	movq	(%rcx), %rcx
	movq	(%rdx), %rdx
	movq	(%rax), %rax
	movq	(%rbx), %rbx
	movq	(%r8), %r8
	movq	(%r9), %r9
	movq	(%r10), %r10
	movq	(%r11), %r11
	movq	(%rcx), %rcx
	movq	(%rdx), %rdx
	movq	(%rax), %rax
	movq	(%rbx), %rbx
	movq	(%r8), %r8
	movq	(%r9), %r9
	movq	(%r10), %r10
	movq	(%r11), %r11
	movq	(%rcx), %rcx
	movq	(%rdx), %rdx
	movq	(%rax), %rax
	movq	(%rbx), %rbx
	movq	(%r8), %r8
	movq	(%r9), %r9
	movq	(%r10), %r10
	movq	(%r11), %r11
	movq	(%rcx), %rcx
	movq	(%rdx), %rdx
	movq	(%rax), %rax
	movq	(%rbx), %rbx
	movq	(%r8), %r8
	movq	(%r9), %r9
	movq	(%r10), %r10
	movq	(%r11), %r11
	movq	(%rcx), %rcx
	movq	(%rdx), %rdx
	movq	(%rax), %rax
	movq	(%rbx), %rbx
	movq	(%r8), %r8
	movq	(%r9), %r9
	movq	(%r10), %r10
	movq	(%r11), %r11
	movq	(%rcx), %rcx
	movq	(%rdx), %rdx
	movq	(%rax), %rax
	movq	(%rbx), %rbx
	movq	(%r8), %r8
	movq	(%r9), %r9
	movq	(%r10), %r10
	movq	(%r11), %r11
	movq	(%rcx), %rcx
	movq	(%rdx), %rdx
	movq	(%rax), %rax
	movq	(%rbx), %rbx
	movq	(%r8), %r8
	movq	(%r9), %r9
	movq	(%r10), %r10
	movq	(%r11), %r11
	movq	(%rcx), %rcx
	movq	(%rdx), %rdx
	movq	(%rax), %rax
	movq	(%rbx), %rbx
	movq	(%r8), %r8
	movq	(%r9), %r9
	movq	(%r10), %r10
	movq	(%r11), %r11
	movq	(%rcx), %rcx
	movq	(%rdx), %rdx
	movq	(%rax), %rax
	movq	(%rbx), %rbx
	movq	(%r8), %r8
	movq	(%r9), %r9
	movq	(%r10), %r10
	movq	(%r11), %r11
	movq	(%rcx), %rcx
	movq	(%rdx), %rdx
	movq	(%rax), %rax
	movq	(%rbx), %rbx
	movq	(%r8), %r8
	movq	(%r9), %r9
	movq	(%r10), %r10
	movq	(%r11), %r11
	movq	(%rcx), %rcx
	movq	(%rdx), %rdx
	movq	(%rax), %rax
	movq	(%rbx), %rbx
	movq	(%r8), %r8
	movq	(%r9), %r9
	movq	(%r10), %r10
	movq	(%r11), %r11
	movq	(%rcx), %rcx
	movq	(%rdx), %rdx
	movq	(%rax), %rax
	movq	(%rbx), %rbx
	movq	(%r8), %r8
	movq	(%r9), %r9
	movq	(%r10), %r10
	movq	(%r11), %r11
	movq	(%rcx), %rcx
	movq	(%rdx), %rdx
	movq	(%rax), %rax
	movq	(%rbx), %rbx
	movq	(%r8), %r8
	movq	(%r9), %r9
	movq	(%r10), %r10
	movq	(%r11), %r11
	movq	(%rcx), %rcx
	movq	(%rdx), %rdx
	movq	(%rax), %rax
	movq	(%rbx), %rbx
	movq	(%r8), %r8
	movq	(%r9), %r9
	movq	(%r10), %r10
	movq	(%r11), %r11
	movq	(%rcx), %rcx
	movq	(%rdx), %rdx
	movq	(%rax), %rax
	movq	(%rbx), %rbx
	movq	(%r8), %r8
	movq	(%r9), %r9
	movq	(%r10), %r10
	movq	(%r11), %r11
	movq	(%rcx), %rcx
	movq	(%rdx), %rdx
	movq	(%rax), %rax
	movq	(%rbx), %rbx
	movq	(%r8), %r8
	movq	(%r9), %r9
	movq	(%r10), %r10
	movq	(%r11), %r11
	movq	(%rcx), %rcx
	movq	(%rdx), %rdx
	movq	(%rax), %rax
	movq	(%rbx), %rbx
	movq	(%r8), %r8
	movq	(%r9), %r9
	movq	(%r10), %r10
	movq	(%r11), %r11
	movq	(%rcx), %rcx
	movq	(%rdx), %rdx
	movq	(%rax), %rax
	movq	(%rbx), %rbx
	movq	(%r8), %r8
	movq	(%r9), %r9
	movq	(%r10), %r10
	movq	(%r11), %r11
	movq	(%rcx), %rcx
	movq	(%rdx), %rdx
	movq	(%rax), %rax
	movq	(%rbx), %rbx
	movq	(%r8), %r8
	movq	(%r9), %r9
	movq	(%r10), %r10
	movq	(%r11), %r11
	movq	(%rcx), %rcx
	movq	(%rdx), %rdx
	movq	(%rax), %rax
	movq	(%rbx), %rbx
	movq	(%r8), %r8
	movq	(%r9), %r9
	movq	(%r10), %r10
	movq	(%r11), %r11
	movq	(%rcx), %rcx
	movq	(%rdx), %rdx
	movq	(%rax), %rax
	movq	(%rbx), %rbx
	movq	(%r8), %r8
	movq	(%r9), %r9
	movq	(%r10), %r10
	movq	(%r11), %r11
	movq	(%rcx), %rcx
	movq	(%rdx), %rdx
	movq	(%rax), %rax
	movq	(%rbx), %rbx
	movq	(%r8), %r8
	movq	(%r9), %r9
	movq	(%r10), %r10
	movq	(%r11), %r11
	movq	(%rcx), %rcx
	movq	(%rdx), %rdx
	movq	(%rax), %rax
	movq	(%rbx), %rbx
	movq	(%r8), %r8
	movq	(%r9), %r9
	movq	(%r10), %r10
	movq	(%r11), %r11
	movq	(%rcx), %rcx
	movq	(%rdx), %rdx
	movq	(%rax), %rax
	movq	(%rbx), %rbx
	movq	(%r8), %r8
	movq	(%r9), %r9
	movq	(%r10), %r10
	movq	(%r11), %r11
	movq	(%rcx), %rcx
	movq	(%rdx), %rdx
	movq	(%rax), %rax
	movq	(%rbx), %rbx
	movq	(%r8), %r8
	movq	(%r9), %r9
	movq	(%r10), %r10
	movq	(%r11), %r11
	movq	(%rcx), %rcx
	movq	(%rdx), %rdx
	movq	(%rax), %rax
	movq	(%rbx), %rbx
	movq	(%r8), %r8
	movq	(%r9), %r9
	movq	(%r10), %r10
	movq	(%r11), %r11
	movq	(%rcx), %rcx
	movq	(%rdx), %rdx
	movq	(%rax), %rax
	movq	(%rbx), %rbx
	movq	(%r8), %r8
	movq	(%r9), %r9
	movq	(%r10), %r10
	movq	(%r11), %r11
	movq	(%rcx), %rcx
	movq	(%rdx), %rdx
	movq	(%rax), %rax
	movq	(%rbx), %rbx
	movq	(%r8), %r8
	movq	(%r9), %r9
	movq	(%r10), %r10
	movq	(%r11), %r11
	movq	(%rcx), %rcx
	movq	(%rdx), %rdx
	movq	(%rax), %rax
	movq	(%rbx), %rbx
	movq	(%r8), %r8
	movq	(%r9), %r9
	movq	(%r10), %r10
	movq	(%r11), %r11
	movq	(%rcx), %rcx
	movq	(%rdx), %rdx
	movq	(%rax), %rax
	movq	(%rbx), %rbx
	movq	(%r8), %r8
	movq	(%r9), %r9
	movq	(%r10), %r10
	movq	(%r11), %r11
	movq	(%rcx), %rcx
	movq	(%rdx), %rdx
	movq	(%rax), %rax
	movq	(%rbx), %rbx
	movq	(%r8), %r8
	movq	(%r9), %r9
	movq	(%r10), %r10
	movq	(%r11), %r11
	movq	(%rcx), %rcx
	movq	(%rdx), %rdx
	movq	(%rax), %rax
	movq	(%rbx), %rbx
	movq	(%r8), %r8
	movq	(%r9), %r9
	movq	(%r10), %r10
	movq	(%r11), %r11
	movq	(%rcx), %rcx
	movq	(%rdx), %rdx
	movq	(%rax), %rax
	movq	(%rbx), %rbx
	movq	(%r8), %r8
	movq	(%r9), %r9
	movq	(%r10), %r10
	movq	(%r11), %r11
	movq	(%rcx), %rcx
	movq	(%rdx), %rdx
	movq	(%rax), %rax
	movq	(%rbx), %rbx
	movq	(%r8), %r8
	movq	(%r9), %r9
	movq	(%r10), %r10
	movq	(%r11), %r11
	movq	(%rcx), %rcx
	movq	(%rdx), %rdx
	movq	(%rax), %rax
	movq	(%rbx), %rbx
	movq	(%r8), %r8
	movq	(%r9), %r9
	movq	(%r10), %r10
	movq	(%r11), %r11
	movq	(%rcx), %rcx
	movq	(%rdx), %rdx
	movq	(%rax), %rax
	movq	(%rbx), %rbx
	movq	(%r8), %r8
	movq	(%r9), %r9
	movq	(%r10), %r10
	movq	(%r11), %r11
	movq	(%rcx), %rcx
	movq	(%rdx), %rdx
	movq	(%rax), %rax
	movq	(%rbx), %rbx
	movq	(%r8), %r14
	movq	(%r9), %r15
	movq	(%r10), %r12
	movq	(%r11), %r13
	movq	(%rcx), %r8
	movq	(%rdx), %r9
	movq	(%rax), %r10
	movq	(%rbx), %r11
	movq	(%r14), %r14
	movq	(%r15), %r15
	movq	(%r12), %r12
	movq	(%r13), %r13
	addq	$-1, %rdi
	jne	.LBB7_6
.LBB7_7:
	movq	%r8, mem_benchmark_7.sp0(%rip)
	movq	%r9, mem_benchmark_7.sp1(%rip)
	movq	%r10, mem_benchmark_7.sp2(%rip)
	movq	%r11, mem_benchmark_7.sp3(%rip)
	movq	%r14, mem_benchmark_7.sp4(%rip)
	movq	%r15, mem_benchmark_7.sp5(%rip)
	movq	%r12, mem_benchmark_7.sp6(%rip)
	movq	%r13, mem_benchmark_7.sp7(%rip)
	movq	(%rsi), %rax
	movq	%rax, mem_benchmark_7.addr_save(%rip)
	movb	$1, mem_benchmark_rerun(%rip)
	popq	%rbx
	popq	%r12
	popq	%r13
	popq	%r14
	popq	%r15
	popq	%rbp
	.cfi_def_cfa %rsp, 8
	retq
.Lfunc_end7:
	.size	mem_benchmark_7, .Lfunc_end7-mem_benchmark_7
	.cfi_endproc
                                        # -- End function
	.globl	mem_benchmark_8         # -- Begin function mem_benchmark_8
	.p2align	4, 0x90
	.type	mem_benchmark_8,@function
mem_benchmark_8:                        # @mem_benchmark_8
	.cfi_startproc
# %bb.0:
	pushq	%rbp
	.cfi_def_cfa_offset 16
	.cfi_offset %rbp, -16
	movq	%rsp, %rbp
	.cfi_def_cfa_register %rbp
	pushq	%r15
	pushq	%r14
	pushq	%r13
	pushq	%r12
	pushq	%rbx
	.cfi_offset %rbx, -56
	.cfi_offset %r12, -48
	.cfi_offset %r13, -40
	.cfi_offset %r14, -32
	.cfi_offset %r15, -24
	cmpb	$1, mem_benchmark_rerun(%rip)
	jne	.LBB8_4
# %bb.1:
	movq	mem_benchmark_8.addr_save(%rip), %rax
	leaq	16(%rsi), %rcx
	leaq	24(%rsi), %rbx
	leaq	32(%rsi), %r8
	leaq	40(%rsi), %r11
	leaq	48(%rsi), %r14
	leaq	56(%rsi), %r15
	leaq	64(%rsi), %r12
	leaq	72(%rsi), %r13
	cmpq	(%rsi), %rax
	movl	$mem_benchmark_8.sp0, %eax
	cmovneq	%rcx, %rax
	movq	(%rax), %rdx
	movl	$mem_benchmark_8.sp1, %eax
	cmovneq	%rbx, %rax
	movq	(%rax), %rbx
	movl	$mem_benchmark_8.sp2, %eax
	cmovneq	%r8, %rax
	movq	(%rax), %r10
	movl	$mem_benchmark_8.sp3, %eax
	cmovneq	%r11, %rax
	movq	(%rax), %r11
	movl	$mem_benchmark_8.sp4, %eax
	cmovneq	%r14, %rax
	movq	(%rax), %r14
	movl	$mem_benchmark_8.sp5, %eax
	cmovneq	%r15, %rax
	movq	(%rax), %r15
	movl	$mem_benchmark_8.sp6, %eax
	cmovneq	%r12, %rax
	movq	(%rax), %r12
	movl	$mem_benchmark_8.sp7, %ecx
	cmovneq	%r13, %rcx
	movq	(%rcx), %r13
	je	.LBB8_3
# %bb.2:
	movq	%rbx, %rax
	jmp	.LBB8_5
.LBB8_4:
	movq	16(%rsi), %rdx
	movq	24(%rsi), %rax
	movq	32(%rsi), %r10
	movq	40(%rsi), %r11
	movq	48(%rsi), %r14
	movq	56(%rsi), %r15
	movq	64(%rsi), %r12
	movq	72(%rsi), %r13
.LBB8_5:
	leaq	80(%rsi), %rcx
	jmp	.LBB8_6
.LBB8_3:
	movl	$mem_benchmark_8.sp8, %ecx
	movq	%rbx, %rax
.LBB8_6:
	movq	(%rcx), %r8
	testq	%rdi, %rdi
	movq	%rsi, -48(%rbp)         # 8-byte Spill
	je	.LBB8_8
	.p2align	4, 0x90
.LBB8_7:                                # =>This Inner Loop Header: Depth=1
	movq	(%rdx), %rdx
	movq	(%rax), %rax
	movq	(%r10), %rbx
	movq	(%r11), %rcx
	movq	(%r14), %r9
	movq	(%r15), %r10
	movq	(%r12), %r11
	movq	(%r13), %r14
	movq	(%r8), %r8
	movq	(%rdx), %rdx
	movq	(%rax), %rax
	movq	(%rbx), %rbx
	movq	(%rcx), %rcx
	movq	(%r9), %r9
	movq	(%r10), %r10
	movq	(%r11), %r11
	movq	(%r14), %r14
	movq	(%r8), %r8
	movq	(%rdx), %rdx
	movq	(%rax), %rax
	movq	(%rbx), %rbx
	movq	(%rcx), %rcx
	movq	(%r9), %r9
	movq	(%r10), %r10
	movq	(%r11), %r11
	movq	(%r14), %r14
	movq	(%r8), %r8
	movq	(%rdx), %rdx
	movq	(%rax), %rax
	movq	(%rbx), %rbx
	movq	(%rcx), %rcx
	movq	(%r9), %r9
	movq	(%r10), %r10
	movq	(%r11), %r11
	movq	(%r14), %r14
	movq	(%r8), %r8
	movq	(%rdx), %rdx
	movq	(%rax), %rax
	movq	(%rbx), %rbx
	movq	(%rcx), %rcx
	movq	(%r9), %r9
	movq	(%r10), %r10
	movq	(%r11), %r11
	movq	(%r14), %r14
	movq	(%r8), %r8
	movq	(%rdx), %rdx
	movq	(%rax), %rax
	movq	(%rbx), %rbx
	movq	(%rcx), %rcx
	movq	(%r9), %r9
	movq	(%r10), %r10
	movq	(%r11), %r11
	movq	(%r14), %r14
	movq	(%r8), %r8
	movq	(%rdx), %rdx
	movq	(%rax), %rax
	movq	(%rbx), %rbx
	movq	(%rcx), %rcx
	movq	(%r9), %r9
	movq	(%r10), %r10
	movq	(%r11), %r11
	movq	(%r14), %r14
	movq	(%r8), %r8
	movq	(%rdx), %rdx
	movq	(%rax), %rax
	movq	(%rbx), %rbx
	movq	(%rcx), %rcx
	movq	(%r9), %r9
	movq	(%r10), %r10
	movq	(%r11), %r11
	movq	(%r14), %r14
	movq	(%r8), %r8
	movq	(%rdx), %rdx
	movq	(%rax), %rax
	movq	(%rbx), %rbx
	movq	(%rcx), %rcx
	movq	(%r9), %r9
	movq	(%r10), %r10
	movq	(%r11), %r11
	movq	(%r14), %r14
	movq	(%r8), %r8
	movq	(%rdx), %rdx
	movq	(%rax), %rax
	movq	(%rbx), %rbx
	movq	(%rcx), %rcx
	movq	(%r9), %r9
	movq	(%r10), %r10
	movq	(%r11), %r11
	movq	(%r14), %r14
	movq	(%r8), %r8
	movq	(%rdx), %rdx
	movq	(%rax), %rax
	movq	(%rbx), %rbx
	movq	(%rcx), %rcx
	movq	(%r9), %r9
	movq	(%r10), %r10
	movq	(%r11), %r11
	movq	(%r14), %r14
	movq	(%r8), %r8
	movq	(%rdx), %rdx
	movq	(%rax), %rax
	movq	(%rbx), %rbx
	movq	(%rcx), %rcx
	movq	(%r9), %r9
	movq	(%r10), %r10
	movq	(%r11), %r11
	movq	(%r14), %r14
	movq	(%r8), %r8
	movq	(%rdx), %rdx
	movq	(%rax), %rax
	movq	(%rbx), %rbx
	movq	(%rcx), %rcx
	movq	(%r9), %r9
	movq	(%r10), %r10
	movq	(%r11), %r11
	movq	(%r14), %r14
	movq	(%r8), %r8
	movq	(%rdx), %rdx
	movq	(%rax), %rax
	movq	(%rbx), %rbx
	movq	(%rcx), %rcx
	movq	(%r9), %r9
	movq	(%r10), %r10
	movq	(%r11), %r11
	movq	(%r14), %r14
	movq	(%r8), %r8
	movq	(%rdx), %rdx
	movq	(%rax), %rax
	movq	(%rbx), %rbx
	movq	(%rcx), %rcx
	movq	(%r9), %r9
	movq	(%r10), %r10
	movq	(%r11), %r11
	movq	(%r14), %r14
	movq	(%r8), %r8
	movq	(%rdx), %rdx
	movq	(%rax), %rax
	movq	(%rbx), %rbx
	movq	(%rcx), %rcx
	movq	(%r9), %r9
	movq	(%r10), %r10
	movq	(%r11), %r11
	movq	(%r14), %r14
	movq	(%r8), %r8
	movq	(%rdx), %rdx
	movq	(%rax), %rax
	movq	(%rbx), %rbx
	movq	(%rcx), %rcx
	movq	(%r9), %r9
	movq	(%r10), %r10
	movq	(%r11), %r11
	movq	(%r14), %r14
	movq	(%r8), %r8
	movq	(%rdx), %rdx
	movq	(%rax), %rax
	movq	(%rbx), %rbx
	movq	(%rcx), %rcx
	movq	(%r9), %r9
	movq	(%r10), %r10
	movq	(%r11), %r11
	movq	(%r14), %r14
	movq	(%r8), %r8
	movq	(%rdx), %rdx
	movq	(%rax), %rax
	movq	(%rbx), %rbx
	movq	(%rcx), %rcx
	movq	(%r9), %r9
	movq	(%r10), %r10
	movq	(%r11), %r11
	movq	(%r14), %r14
	movq	(%r8), %r8
	movq	(%rdx), %rdx
	movq	(%rax), %rax
	movq	(%rbx), %rbx
	movq	(%rcx), %rcx
	movq	(%r9), %r9
	movq	(%r10), %r10
	movq	(%r11), %r11
	movq	(%r14), %r14
	movq	(%r8), %r8
	movq	(%rdx), %rdx
	movq	(%rax), %rax
	movq	(%rbx), %rbx
	movq	(%rcx), %rcx
	movq	(%r9), %r9
	movq	(%r10), %r10
	movq	(%r11), %r11
	movq	(%r14), %r14
	movq	(%r8), %r8
	movq	(%rdx), %rdx
	movq	(%rax), %rax
	movq	(%rbx), %rbx
	movq	(%rcx), %rcx
	movq	(%r9), %r9
	movq	(%r10), %r10
	movq	(%r11), %r11
	movq	(%r14), %r14
	movq	(%r8), %r8
	movq	(%rdx), %rdx
	movq	(%rax), %rax
	movq	(%rbx), %rbx
	movq	(%rcx), %rcx
	movq	(%r9), %r9
	movq	(%r10), %r10
	movq	(%r11), %r11
	movq	(%r14), %r14
	movq	(%r8), %r8
	movq	(%rdx), %rdx
	movq	(%rax), %rax
	movq	(%rbx), %rbx
	movq	(%rcx), %rcx
	movq	(%r9), %r9
	movq	(%r10), %r10
	movq	(%r11), %r11
	movq	(%r14), %r14
	movq	(%r8), %r8
	movq	(%rdx), %rdx
	movq	(%rax), %rax
	movq	(%rbx), %rbx
	movq	(%rcx), %rcx
	movq	(%r9), %r9
	movq	(%r10), %r10
	movq	(%r11), %r11
	movq	(%r14), %r14
	movq	(%r8), %r8
	movq	(%rdx), %rdx
	movq	(%rax), %rax
	movq	(%rbx), %rbx
	movq	(%rcx), %rcx
	movq	(%r9), %r9
	movq	(%r10), %r10
	movq	(%r11), %r11
	movq	(%r14), %r14
	movq	(%r8), %r8
	movq	(%rdx), %rdx
	movq	(%rax), %rax
	movq	(%rbx), %rbx
	movq	(%rcx), %rcx
	movq	(%r9), %r9
	movq	(%r10), %r10
	movq	(%r11), %r11
	movq	(%r14), %r14
	movq	(%r8), %r8
	movq	(%rdx), %rdx
	movq	(%rax), %rax
	movq	(%rbx), %rbx
	movq	(%rcx), %rcx
	movq	(%r9), %r9
	movq	(%r10), %r10
	movq	(%r11), %r11
	movq	(%r14), %r14
	movq	(%r8), %r8
	movq	(%rdx), %rdx
	movq	(%rax), %rax
	movq	(%rbx), %rbx
	movq	(%rcx), %rcx
	movq	(%r9), %r9
	movq	(%r10), %r10
	movq	(%r11), %r11
	movq	(%r14), %r14
	movq	(%r8), %r8
	movq	(%rdx), %rdx
	movq	(%rax), %rax
	movq	(%rbx), %rbx
	movq	(%rcx), %rcx
	movq	(%r9), %r9
	movq	(%r10), %r10
	movq	(%r11), %r11
	movq	(%r14), %r14
	movq	(%r8), %r8
	movq	(%rdx), %rdx
	movq	(%rax), %rax
	movq	(%rbx), %rbx
	movq	(%rcx), %rcx
	movq	(%r9), %r9
	movq	(%r10), %r10
	movq	(%r11), %r11
	movq	(%r14), %r14
	movq	(%r8), %r8
	movq	(%rdx), %rdx
	movq	(%rax), %rax
	movq	(%rbx), %rbx
	movq	(%rcx), %rcx
	movq	(%r9), %r9
	movq	(%r10), %r10
	movq	(%r11), %r11
	movq	(%r14), %r14
	movq	(%r8), %r8
	movq	(%rdx), %rdx
	movq	(%rax), %rax
	movq	(%rbx), %rbx
	movq	(%rcx), %rcx
	movq	(%r9), %r9
	movq	(%r10), %r10
	movq	(%r11), %r11
	movq	(%r14), %r14
	movq	(%r8), %r8
	movq	(%rdx), %rdx
	movq	(%rax), %rax
	movq	(%rbx), %rbx
	movq	(%rcx), %rcx
	movq	(%r9), %r9
	movq	(%r10), %r10
	movq	(%r11), %r11
	movq	(%r14), %r14
	movq	(%r8), %r8
	movq	(%rdx), %rdx
	movq	(%rax), %rax
	movq	(%rbx), %rbx
	movq	(%rcx), %rcx
	movq	(%r9), %r9
	movq	(%r10), %r10
	movq	(%r11), %r11
	movq	(%r14), %r14
	movq	(%r8), %r8
	movq	(%rdx), %rdx
	movq	(%rax), %rax
	movq	(%rbx), %rbx
	movq	(%rcx), %rcx
	movq	(%r9), %r9
	movq	(%r10), %r10
	movq	(%r11), %r11
	movq	(%r14), %r14
	movq	(%r8), %r8
	movq	(%rdx), %rdx
	movq	(%rax), %rax
	movq	(%rbx), %rbx
	movq	(%rcx), %rcx
	movq	(%r9), %r9
	movq	(%r10), %r10
	movq	(%r11), %r11
	movq	(%r14), %r14
	movq	(%r8), %r8
	movq	(%rdx), %rdx
	movq	(%rax), %rax
	movq	(%rbx), %rbx
	movq	(%rcx), %rcx
	movq	(%r9), %r9
	movq	(%r10), %r10
	movq	(%r11), %r11
	movq	(%r14), %r14
	movq	(%r8), %r8
	movq	(%rdx), %rdx
	movq	(%rax), %rax
	movq	(%rbx), %rbx
	movq	(%rcx), %rcx
	movq	(%r9), %r9
	movq	(%r10), %r10
	movq	(%r11), %r11
	movq	(%r14), %r14
	movq	(%r8), %r8
	movq	(%rdx), %rdx
	movq	(%rax), %rax
	movq	(%rbx), %rbx
	movq	(%rcx), %rcx
	movq	(%r9), %r9
	movq	(%r10), %r10
	movq	(%r11), %r11
	movq	(%r14), %r14
	movq	(%r8), %r8
	movq	(%rdx), %rdx
	movq	(%rax), %rax
	movq	(%rbx), %rbx
	movq	(%rcx), %rcx
	movq	(%r9), %r9
	movq	(%r10), %r10
	movq	(%r11), %r11
	movq	(%r14), %r14
	movq	(%r8), %r8
	movq	(%rdx), %rdx
	movq	(%rax), %rax
	movq	(%rbx), %rbx
	movq	(%rcx), %rcx
	movq	(%r9), %r9
	movq	(%r10), %r10
	movq	(%r11), %r11
	movq	(%r14), %r14
	movq	(%r8), %r8
	movq	(%rdx), %rdx
	movq	(%rax), %rax
	movq	(%rbx), %rbx
	movq	(%rcx), %rcx
	movq	(%r9), %r9
	movq	(%r10), %r10
	movq	(%r11), %r11
	movq	(%r14), %r14
	movq	(%r8), %r8
	movq	(%rdx), %rdx
	movq	(%rax), %rax
	movq	(%rbx), %rbx
	movq	(%rcx), %rcx
	movq	(%r9), %r9
	movq	(%r10), %r10
	movq	(%r11), %r11
	movq	(%r14), %r14
	movq	(%r8), %r8
	movq	(%rdx), %rdx
	movq	(%rax), %rax
	movq	(%rbx), %rbx
	movq	(%rcx), %rcx
	movq	(%r9), %r9
	movq	(%r10), %r10
	movq	(%r11), %r11
	movq	(%r14), %r14
	movq	(%r8), %r8
	movq	(%rdx), %rdx
	movq	(%rax), %rax
	movq	(%rbx), %rbx
	movq	(%rcx), %rcx
	movq	(%r9), %r9
	movq	(%r10), %r10
	movq	(%r11), %r11
	movq	(%r14), %r14
	movq	(%r8), %r8
	movq	(%rdx), %rdx
	movq	(%rax), %rax
	movq	(%rbx), %rbx
	movq	(%rcx), %rcx
	movq	(%r9), %r9
	movq	(%r10), %r10
	movq	(%r11), %r11
	movq	(%r14), %r14
	movq	(%r8), %r8
	movq	(%rdx), %rdx
	movq	(%rax), %rax
	movq	(%rbx), %rbx
	movq	(%rcx), %rcx
	movq	(%r9), %r9
	movq	(%r10), %r10
	movq	(%r11), %r11
	movq	(%r14), %r14
	movq	(%r8), %r8
	movq	(%rdx), %rdx
	movq	(%rax), %rax
	movq	(%rbx), %rbx
	movq	(%rcx), %rcx
	movq	(%r9), %r9
	movq	(%r10), %r10
	movq	(%r11), %r11
	movq	(%r14), %r14
	movq	(%r8), %r8
	movq	(%rdx), %rdx
	movq	(%rax), %rax
	movq	(%rbx), %rbx
	movq	(%rcx), %rcx
	movq	(%r9), %r9
	movq	(%r10), %r10
	movq	(%r11), %r11
	movq	(%r14), %r14
	movq	(%r8), %r8
	movq	(%rdx), %rdx
	movq	(%rax), %rax
	movq	(%rbx), %rbx
	movq	(%rcx), %rcx
	movq	(%r9), %r9
	movq	(%r10), %r10
	movq	(%r11), %r11
	movq	(%r14), %r14
	movq	(%r8), %r8
	movq	(%rdx), %rdx
	movq	(%rax), %rax
	movq	(%rbx), %rbx
	movq	(%rcx), %rcx
	movq	(%r9), %r9
	movq	(%r10), %r10
	movq	(%r11), %r11
	movq	(%r14), %r14
	movq	(%r8), %r8
	movq	(%rdx), %rdx
	movq	(%rax), %rax
	movq	(%rbx), %rbx
	movq	(%rcx), %rcx
	movq	(%r9), %r9
	movq	(%r10), %r10
	movq	(%r11), %r11
	movq	(%r14), %r14
	movq	(%r8), %r8
	movq	(%rdx), %rdx
	movq	(%rax), %rax
	movq	(%rbx), %rbx
	movq	(%rcx), %rcx
	movq	(%r9), %r9
	movq	(%r10), %r10
	movq	(%r11), %r11
	movq	(%r14), %r14
	movq	(%r8), %r8
	movq	(%rdx), %rdx
	movq	(%rax), %rax
	movq	(%rbx), %rbx
	movq	(%rcx), %rcx
	movq	(%r9), %r9
	movq	(%r10), %r10
	movq	(%r11), %r11
	movq	(%r14), %r14
	movq	(%r8), %r8
	movq	(%rdx), %rdx
	movq	(%rax), %rax
	movq	(%rbx), %rbx
	movq	(%rcx), %rcx
	movq	(%r9), %r9
	movq	(%r10), %r10
	movq	(%r11), %r11
	movq	(%r14), %r14
	movq	(%r8), %r8
	movq	(%rdx), %rdx
	movq	(%rax), %rax
	movq	(%rbx), %rbx
	movq	(%rcx), %rcx
	movq	(%r9), %r9
	movq	(%r10), %r10
	movq	(%r11), %r11
	movq	(%r14), %r14
	movq	(%r8), %r8
	movq	(%rdx), %rdx
	movq	(%rax), %rax
	movq	(%rbx), %rbx
	movq	(%rcx), %rcx
	movq	(%r9), %r9
	movq	(%r10), %r10
	movq	(%r11), %r11
	movq	(%r14), %r14
	movq	(%r8), %r8
	movq	(%rdx), %rdx
	movq	(%rax), %rax
	movq	(%rbx), %rbx
	movq	(%rcx), %rcx
	movq	(%r9), %r9
	movq	(%r10), %r10
	movq	(%r11), %r11
	movq	(%r14), %r14
	movq	(%r8), %r8
	movq	(%rdx), %rdx
	movq	(%rax), %rax
	movq	(%rbx), %rbx
	movq	(%rcx), %rcx
	movq	(%r9), %r9
	movq	(%r10), %r10
	movq	(%r11), %r11
	movq	(%r14), %r14
	movq	(%r8), %r8
	movq	(%rdx), %rdx
	movq	(%rax), %rax
	movq	(%rbx), %rbx
	movq	(%rcx), %rcx
	movq	(%r9), %r9
	movq	(%r10), %r10
	movq	(%r11), %r11
	movq	(%r14), %r14
	movq	(%r8), %r8
	movq	(%rdx), %rdx
	movq	(%rax), %rax
	movq	(%rbx), %rbx
	movq	(%rcx), %rcx
	movq	(%r9), %r9
	movq	(%r10), %r10
	movq	(%r11), %r11
	movq	(%r14), %r14
	movq	(%r8), %r8
	movq	(%rdx), %rdx
	movq	(%rax), %rax
	movq	(%rbx), %rbx
	movq	(%rcx), %rcx
	movq	(%r9), %r9
	movq	(%r10), %r10
	movq	(%r11), %r11
	movq	(%r14), %r14
	movq	(%r8), %r8
	movq	(%rdx), %rdx
	movq	(%rax), %rax
	movq	(%rbx), %rbx
	movq	(%rcx), %rcx
	movq	(%r9), %r9
	movq	(%r10), %r10
	movq	(%r11), %r11
	movq	(%r14), %r14
	movq	(%r8), %r8
	movq	(%rdx), %rdx
	movq	(%rax), %rax
	movq	(%rbx), %rbx
	movq	(%rcx), %rcx
	movq	(%r9), %r9
	movq	(%r10), %r10
	movq	(%r11), %r11
	movq	(%r14), %r14
	movq	(%r8), %r8
	movq	(%rdx), %rdx
	movq	(%rax), %rax
	movq	(%rbx), %rbx
	movq	(%rcx), %rcx
	movq	(%r9), %r9
	movq	(%r10), %r10
	movq	(%r11), %r11
	movq	(%r14), %r14
	movq	(%r8), %r8
	movq	(%rdx), %rdx
	movq	(%rax), %rax
	movq	(%rbx), %rbx
	movq	(%rcx), %rcx
	movq	(%r9), %r9
	movq	(%r10), %r10
	movq	(%r11), %r11
	movq	(%r14), %r14
	movq	(%r8), %r8
	movq	(%rdx), %rdx
	movq	(%rax), %rax
	movq	(%rbx), %rbx
	movq	(%rcx), %rcx
	movq	(%r9), %r9
	movq	(%r10), %r10
	movq	(%r11), %r11
	movq	(%r14), %r14
	movq	(%r8), %r8
	movq	(%rdx), %rdx
	movq	(%rax), %rax
	movq	(%rbx), %rbx
	movq	(%rcx), %rcx
	movq	(%r9), %r9
	movq	(%r10), %r10
	movq	(%r11), %r11
	movq	(%r14), %r14
	movq	(%r8), %r8
	movq	(%rdx), %rdx
	movq	(%rax), %rax
	movq	(%rbx), %rbx
	movq	(%rcx), %rcx
	movq	(%r9), %r9
	movq	(%r10), %r10
	movq	(%r11), %r11
	movq	(%r14), %r14
	movq	(%r8), %r8
	movq	(%rdx), %rdx
	movq	(%rax), %rax
	movq	(%rbx), %rbx
	movq	(%rcx), %rcx
	movq	(%r9), %r9
	movq	(%r10), %r10
	movq	(%r11), %r11
	movq	(%r14), %r14
	movq	(%r8), %r8
	movq	(%rdx), %rdx
	movq	(%rax), %rax
	movq	(%rbx), %rbx
	movq	(%rcx), %rcx
	movq	(%r9), %r9
	movq	(%r10), %r10
	movq	(%r11), %r11
	movq	(%r14), %r14
	movq	(%r8), %r8
	movq	(%rdx), %rdx
	movq	(%rax), %rax
	movq	(%rbx), %rbx
	movq	(%rcx), %rcx
	movq	(%r9), %r9
	movq	(%r10), %r10
	movq	(%r11), %r11
	movq	(%r14), %r14
	movq	(%r8), %r8
	movq	(%rdx), %rdx
	movq	(%rax), %rax
	movq	(%rbx), %rbx
	movq	(%rcx), %rcx
	movq	(%r9), %r9
	movq	(%r10), %r10
	movq	(%r11), %r11
	movq	(%r14), %r14
	movq	(%r8), %r8
	movq	(%rdx), %rdx
	movq	(%rax), %rax
	movq	(%rbx), %rbx
	movq	(%rcx), %rcx
	movq	(%r9), %r9
	movq	(%r10), %r10
	movq	(%r11), %r11
	movq	(%r14), %r14
	movq	(%r8), %r8
	movq	(%rdx), %rdx
	movq	(%rax), %rax
	movq	(%rbx), %rbx
	movq	(%rcx), %rcx
	movq	(%r9), %r9
	movq	(%r10), %r10
	movq	(%r11), %r11
	movq	(%r14), %r14
	movq	(%r8), %r8
	movq	(%rdx), %rdx
	movq	(%rax), %rax
	movq	(%rbx), %rbx
	movq	(%rcx), %rcx
	movq	(%r9), %r9
	movq	(%r10), %r10
	movq	(%r11), %r11
	movq	(%r14), %r14
	movq	(%r8), %r8
	movq	(%rdx), %rdx
	movq	(%rax), %rax
	movq	(%rbx), %rbx
	movq	(%rcx), %rcx
	movq	(%r9), %r9
	movq	(%r10), %r10
	movq	(%r11), %r11
	movq	(%r14), %r14
	movq	(%r8), %r8
	movq	(%rdx), %rdx
	movq	(%rax), %rax
	movq	(%rbx), %rbx
	movq	(%rcx), %rcx
	movq	(%r9), %r9
	movq	(%r10), %r10
	movq	(%r11), %r11
	movq	(%r14), %r14
	movq	(%r8), %r8
	movq	(%rdx), %rdx
	movq	(%rax), %rax
	movq	(%rbx), %rbx
	movq	(%rcx), %rcx
	movq	(%r9), %r9
	movq	(%r10), %r10
	movq	(%r11), %r11
	movq	(%r14), %r14
	movq	(%r8), %r8
	movq	(%rdx), %rdx
	movq	(%rax), %rax
	movq	(%rbx), %rbx
	movq	(%rcx), %rcx
	movq	(%r9), %r9
	movq	(%r10), %r10
	movq	(%r11), %r11
	movq	(%r14), %r14
	movq	(%r8), %r8
	movq	(%rdx), %rdx
	movq	(%rax), %rax
	movq	(%rbx), %rbx
	movq	(%rcx), %rcx
	movq	(%r9), %r9
	movq	(%r10), %r10
	movq	(%r11), %r11
	movq	(%r14), %r14
	movq	(%r8), %r8
	movq	(%rdx), %rdx
	movq	(%rax), %rax
	movq	(%rbx), %rbx
	movq	(%rcx), %rcx
	movq	(%r9), %r9
	movq	(%r10), %r10
	movq	(%r11), %r11
	movq	(%r14), %r14
	movq	(%r8), %r8
	movq	(%rdx), %rdx
	movq	(%rax), %rax
	movq	(%rbx), %rbx
	movq	(%rcx), %rcx
	movq	(%r9), %r9
	movq	(%r10), %r10
	movq	(%r11), %r11
	movq	(%r14), %r14
	movq	(%r8), %r8
	movq	(%rdx), %rdx
	movq	(%rax), %rax
	movq	(%rbx), %rbx
	movq	(%rcx), %rcx
	movq	(%r9), %r9
	movq	(%r10), %r10
	movq	(%r11), %r11
	movq	(%r14), %r14
	movq	(%r8), %r8
	movq	(%rdx), %rdx
	movq	(%rax), %rax
	movq	(%rbx), %rbx
	movq	(%rcx), %rcx
	movq	(%r9), %r9
	movq	(%r10), %r10
	movq	(%r11), %r11
	movq	(%r14), %r14
	movq	(%r8), %r8
	movq	(%rdx), %rdx
	movq	(%rax), %rax
	movq	(%rbx), %rbx
	movq	(%rcx), %rcx
	movq	(%r9), %r9
	movq	(%r10), %r10
	movq	(%r11), %r11
	movq	(%r14), %r14
	movq	(%r8), %r8
	movq	(%rdx), %rdx
	movq	(%rax), %rax
	movq	(%rbx), %rbx
	movq	(%rcx), %rcx
	movq	(%r9), %r9
	movq	(%r10), %r10
	movq	(%r11), %r11
	movq	(%r14), %r14
	movq	(%r8), %r8
	movq	(%rdx), %rdx
	movq	(%rax), %rax
	movq	(%rbx), %rbx
	movq	(%rcx), %rcx
	movq	(%r9), %r9
	movq	(%r10), %r10
	movq	(%r11), %r11
	movq	(%r14), %r14
	movq	(%r8), %r8
	movq	(%rdx), %rdx
	movq	(%rax), %rax
	movq	(%rbx), %rbx
	movq	(%rcx), %rcx
	movq	(%r9), %r9
	movq	(%r10), %r10
	movq	(%r11), %r11
	movq	(%r14), %r14
	movq	(%r8), %r8
	movq	(%rdx), %rdx
	movq	(%rax), %rax
	movq	(%rbx), %rbx
	movq	(%rcx), %rcx
	movq	(%r9), %r9
	movq	(%r10), %r10
	movq	(%r11), %r11
	movq	(%r14), %r14
	movq	(%r8), %r8
	movq	(%rdx), %rdx
	movq	(%rax), %rax
	movq	(%rbx), %rbx
	movq	(%rcx), %rcx
	movq	(%r9), %r9
	movq	(%r10), %r10
	movq	(%r11), %r11
	movq	(%r14), %r14
	movq	(%r8), %r8
	movq	(%rdx), %rdx
	movq	(%rax), %rax
	movq	(%rbx), %rbx
	movq	(%rcx), %rcx
	movq	(%r9), %r9
	movq	(%r10), %r10
	movq	(%r11), %r11
	movq	(%r14), %r14
	movq	(%r8), %r8
	movq	(%rdx), %rdx
	movq	(%rax), %rax
	movq	(%rbx), %rbx
	movq	(%rcx), %rcx
	movq	(%r9), %r9
	movq	(%r10), %r10
	movq	(%r11), %r11
	movq	(%r14), %r14
	movq	(%r8), %r8
	movq	(%rdx), %rdx
	movq	(%rax), %rax
	movq	(%rbx), %rbx
	movq	(%rcx), %rcx
	movq	(%r9), %r9
	movq	(%r10), %r10
	movq	(%r11), %r11
	movq	(%r14), %r14
	movq	(%r8), %r8
	movq	(%rdx), %rdx
	movq	(%rax), %rax
	movq	(%rbx), %rbx
	movq	(%rcx), %rcx
	movq	(%r9), %r9
	movq	(%r10), %r10
	movq	(%r11), %r11
	movq	(%r14), %r14
	movq	(%r8), %r8
	movq	(%rdx), %rdx
	movq	(%rax), %rax
	movq	(%rbx), %rbx
	movq	(%rcx), %rcx
	movq	(%r9), %r9
	movq	(%r10), %r10
	movq	(%r11), %r11
	movq	(%r14), %r14
	movq	(%r8), %r8
	movq	(%rdx), %rdx
	movq	(%rax), %rax
	movq	(%rbx), %rbx
	movq	(%rcx), %rcx
	movq	(%r9), %r9
	movq	(%r10), %r10
	movq	(%r11), %r11
	movq	(%r14), %r14
	movq	(%r8), %r8
	movq	(%rdx), %rdx
	movq	(%rax), %rax
	movq	(%rbx), %rbx
	movq	(%rcx), %rcx
	movq	(%r9), %r15
	movq	(%r10), %r12
	movq	(%r11), %r13
	movq	(%r14), %r9
	movq	(%r8), %rsi
	movq	(%rdx), %rdx
	movq	(%rax), %rax
	movq	(%rbx), %r10
	movq	(%rcx), %r11
	movq	(%r15), %r14
	movq	(%r12), %r15
	movq	(%r13), %r12
	movq	(%r9), %r13
	movq	(%rsi), %r8
	addq	$-1, %rdi
	jne	.LBB8_7
.LBB8_8:
	movq	%rdx, mem_benchmark_8.sp0(%rip)
	movq	%rax, mem_benchmark_8.sp1(%rip)
	movq	%r10, mem_benchmark_8.sp2(%rip)
	movq	%r11, mem_benchmark_8.sp3(%rip)
	movq	%r14, mem_benchmark_8.sp4(%rip)
	movq	%r15, mem_benchmark_8.sp5(%rip)
	movq	%r12, mem_benchmark_8.sp6(%rip)
	movq	%r13, mem_benchmark_8.sp7(%rip)
	movq	%r8, mem_benchmark_8.sp8(%rip)
	movq	-48(%rbp), %rax         # 8-byte Reload
	movq	(%rax), %rax
	movq	%rax, mem_benchmark_8.addr_save(%rip)
	movb	$1, mem_benchmark_rerun(%rip)
	popq	%rbx
	popq	%r12
	popq	%r13
	popq	%r14
	popq	%r15
	popq	%rbp
	.cfi_def_cfa %rsp, 8
	retq
.Lfunc_end8:
	.size	mem_benchmark_8, .Lfunc_end8-mem_benchmark_8
	.cfi_endproc
                                        # -- End function
	.globl	mem_benchmark_9         # -- Begin function mem_benchmark_9
	.p2align	4, 0x90
	.type	mem_benchmark_9,@function
mem_benchmark_9:                        # @mem_benchmark_9
	.cfi_startproc
# %bb.0:
	pushq	%rbp
	.cfi_def_cfa_offset 16
	.cfi_offset %rbp, -16
	movq	%rsp, %rbp
	.cfi_def_cfa_register %rbp
	pushq	%r15
	pushq	%r14
	pushq	%r13
	pushq	%r12
	pushq	%rbx
	.cfi_offset %rbx, -56
	.cfi_offset %r12, -48
	.cfi_offset %r13, -40
	.cfi_offset %r14, -32
	.cfi_offset %r15, -24
	cmpb	$1, mem_benchmark_rerun(%rip)
	jne	.LBB9_3
# %bb.1:
	movq	mem_benchmark_9.addr_save(%rip), %rax
	leaq	16(%rsi), %rdx
	leaq	24(%rsi), %rbx
	leaq	32(%rsi), %rcx
	leaq	40(%rsi), %r11
	leaq	48(%rsi), %r14
	leaq	56(%rsi), %r15
	leaq	64(%rsi), %r13
	leaq	72(%rsi), %r8
	leaq	80(%rsi), %r9
	cmpq	(%rsi), %rax
	movl	$mem_benchmark_9.sp0, %eax
	cmovneq	%rdx, %rax
	movq	(%rax), %r10
	movl	$mem_benchmark_9.sp1, %eax
	cmovneq	%rbx, %rax
	movq	(%rax), %rdx
	movl	$mem_benchmark_9.sp2, %eax
	cmovneq	%rcx, %rax
	movq	(%rax), %rbx
	movl	$mem_benchmark_9.sp3, %eax
	cmovneq	%r11, %rax
	movq	(%rax), %r11
	movl	$mem_benchmark_9.sp4, %eax
	cmovneq	%r14, %rax
	movq	(%rax), %r14
	movl	$mem_benchmark_9.sp5, %eax
	cmovneq	%r15, %rax
	movq	(%rax), %r15
	movl	$mem_benchmark_9.sp6, %eax
	cmovneq	%r13, %rax
	movq	(%rax), %r13
	movl	$mem_benchmark_9.sp7, %ecx
	cmovneq	%r8, %rcx
	movq	(%rcx), %r12
	movl	$mem_benchmark_9.sp8, %ecx
	cmovneq	%r9, %rcx
	movq	(%rcx), %r8
	jne	.LBB9_4
# %bb.2:
	movl	$mem_benchmark_9.sp9, %eax
	jmp	.LBB9_5
.LBB9_3:
	movq	16(%rsi), %r10
	movq	24(%rsi), %rdx
	movq	32(%rsi), %rbx
	movq	40(%rsi), %r11
	movq	48(%rsi), %r14
	movq	56(%rsi), %r15
	movq	64(%rsi), %r13
	movq	72(%rsi), %r12
	movq	80(%rsi), %r8
.LBB9_4:
	leaq	88(%rsi), %rax
.LBB9_5:
	movq	(%rax), %r9
	testq	%rdi, %rdi
	movq	%rsi, -48(%rbp)         # 8-byte Spill
	movq	%r10, %rsi
	movq	%rdx, %rax
	je	.LBB9_7
	.p2align	4, 0x90
.LBB9_6:                                # =>This Inner Loop Header: Depth=1
	movq	(%rsi), %rsi
	movq	(%rax), %rax
	movq	(%rbx), %rbx
	movq	(%r11), %rcx
	movq	(%r14), %rdx
	movq	(%r15), %r10
	movq	(%r13), %r11
	movq	(%r12), %r14
	movq	(%r8), %r8
	movq	(%r9), %r9
	movq	(%rsi), %rsi
	movq	(%rax), %rax
	movq	(%rbx), %rbx
	movq	(%rcx), %rcx
	movq	(%rdx), %rdx
	movq	(%r10), %r10
	movq	(%r11), %r11
	movq	(%r14), %r14
	movq	(%r8), %r8
	movq	(%r9), %r9
	movq	(%rsi), %rsi
	movq	(%rax), %rax
	movq	(%rbx), %rbx
	movq	(%rcx), %rcx
	movq	(%rdx), %rdx
	movq	(%r10), %r10
	movq	(%r11), %r11
	movq	(%r14), %r14
	movq	(%r8), %r8
	movq	(%r9), %r9
	movq	(%rsi), %rsi
	movq	(%rax), %rax
	movq	(%rbx), %rbx
	movq	(%rcx), %rcx
	movq	(%rdx), %rdx
	movq	(%r10), %r10
	movq	(%r11), %r11
	movq	(%r14), %r14
	movq	(%r8), %r8
	movq	(%r9), %r9
	movq	(%rsi), %rsi
	movq	(%rax), %rax
	movq	(%rbx), %rbx
	movq	(%rcx), %rcx
	movq	(%rdx), %rdx
	movq	(%r10), %r10
	movq	(%r11), %r11
	movq	(%r14), %r14
	movq	(%r8), %r8
	movq	(%r9), %r9
	movq	(%rsi), %rsi
	movq	(%rax), %rax
	movq	(%rbx), %rbx
	movq	(%rcx), %rcx
	movq	(%rdx), %rdx
	movq	(%r10), %r10
	movq	(%r11), %r11
	movq	(%r14), %r14
	movq	(%r8), %r8
	movq	(%r9), %r9
	movq	(%rsi), %rsi
	movq	(%rax), %rax
	movq	(%rbx), %rbx
	movq	(%rcx), %rcx
	movq	(%rdx), %rdx
	movq	(%r10), %r10
	movq	(%r11), %r11
	movq	(%r14), %r14
	movq	(%r8), %r8
	movq	(%r9), %r9
	movq	(%rsi), %rsi
	movq	(%rax), %rax
	movq	(%rbx), %rbx
	movq	(%rcx), %rcx
	movq	(%rdx), %rdx
	movq	(%r10), %r10
	movq	(%r11), %r11
	movq	(%r14), %r14
	movq	(%r8), %r8
	movq	(%r9), %r9
	movq	(%rsi), %rsi
	movq	(%rax), %rax
	movq	(%rbx), %rbx
	movq	(%rcx), %rcx
	movq	(%rdx), %rdx
	movq	(%r10), %r10
	movq	(%r11), %r11
	movq	(%r14), %r14
	movq	(%r8), %r8
	movq	(%r9), %r9
	movq	(%rsi), %rsi
	movq	(%rax), %rax
	movq	(%rbx), %rbx
	movq	(%rcx), %rcx
	movq	(%rdx), %rdx
	movq	(%r10), %r10
	movq	(%r11), %r11
	movq	(%r14), %r14
	movq	(%r8), %r8
	movq	(%r9), %r9
	movq	(%rsi), %rsi
	movq	(%rax), %rax
	movq	(%rbx), %rbx
	movq	(%rcx), %rcx
	movq	(%rdx), %rdx
	movq	(%r10), %r10
	movq	(%r11), %r11
	movq	(%r14), %r14
	movq	(%r8), %r8
	movq	(%r9), %r9
	movq	(%rsi), %rsi
	movq	(%rax), %rax
	movq	(%rbx), %rbx
	movq	(%rcx), %rcx
	movq	(%rdx), %rdx
	movq	(%r10), %r10
	movq	(%r11), %r11
	movq	(%r14), %r14
	movq	(%r8), %r8
	movq	(%r9), %r9
	movq	(%rsi), %rsi
	movq	(%rax), %rax
	movq	(%rbx), %rbx
	movq	(%rcx), %rcx
	movq	(%rdx), %rdx
	movq	(%r10), %r10
	movq	(%r11), %r11
	movq	(%r14), %r14
	movq	(%r8), %r8
	movq	(%r9), %r9
	movq	(%rsi), %rsi
	movq	(%rax), %rax
	movq	(%rbx), %rbx
	movq	(%rcx), %rcx
	movq	(%rdx), %rdx
	movq	(%r10), %r10
	movq	(%r11), %r11
	movq	(%r14), %r14
	movq	(%r8), %r8
	movq	(%r9), %r9
	movq	(%rsi), %rsi
	movq	(%rax), %rax
	movq	(%rbx), %rbx
	movq	(%rcx), %rcx
	movq	(%rdx), %rdx
	movq	(%r10), %r10
	movq	(%r11), %r11
	movq	(%r14), %r14
	movq	(%r8), %r8
	movq	(%r9), %r9
	movq	(%rsi), %rsi
	movq	(%rax), %rax
	movq	(%rbx), %rbx
	movq	(%rcx), %rcx
	movq	(%rdx), %rdx
	movq	(%r10), %r10
	movq	(%r11), %r11
	movq	(%r14), %r14
	movq	(%r8), %r8
	movq	(%r9), %r9
	movq	(%rsi), %rsi
	movq	(%rax), %rax
	movq	(%rbx), %rbx
	movq	(%rcx), %rcx
	movq	(%rdx), %rdx
	movq	(%r10), %r10
	movq	(%r11), %r11
	movq	(%r14), %r14
	movq	(%r8), %r8
	movq	(%r9), %r9
	movq	(%rsi), %rsi
	movq	(%rax), %rax
	movq	(%rbx), %rbx
	movq	(%rcx), %rcx
	movq	(%rdx), %rdx
	movq	(%r10), %r10
	movq	(%r11), %r11
	movq	(%r14), %r14
	movq	(%r8), %r8
	movq	(%r9), %r9
	movq	(%rsi), %rsi
	movq	(%rax), %rax
	movq	(%rbx), %rbx
	movq	(%rcx), %rcx
	movq	(%rdx), %rdx
	movq	(%r10), %r10
	movq	(%r11), %r11
	movq	(%r14), %r14
	movq	(%r8), %r8
	movq	(%r9), %r9
	movq	(%rsi), %rsi
	movq	(%rax), %rax
	movq	(%rbx), %rbx
	movq	(%rcx), %rcx
	movq	(%rdx), %rdx
	movq	(%r10), %r10
	movq	(%r11), %r11
	movq	(%r14), %r14
	movq	(%r8), %r8
	movq	(%r9), %r9
	movq	(%rsi), %rsi
	movq	(%rax), %rax
	movq	(%rbx), %rbx
	movq	(%rcx), %rcx
	movq	(%rdx), %rdx
	movq	(%r10), %r10
	movq	(%r11), %r11
	movq	(%r14), %r14
	movq	(%r8), %r8
	movq	(%r9), %r9
	movq	(%rsi), %rsi
	movq	(%rax), %rax
	movq	(%rbx), %rbx
	movq	(%rcx), %rcx
	movq	(%rdx), %rdx
	movq	(%r10), %r10
	movq	(%r11), %r11
	movq	(%r14), %r14
	movq	(%r8), %r8
	movq	(%r9), %r9
	movq	(%rsi), %rsi
	movq	(%rax), %rax
	movq	(%rbx), %rbx
	movq	(%rcx), %rcx
	movq	(%rdx), %rdx
	movq	(%r10), %r10
	movq	(%r11), %r11
	movq	(%r14), %r14
	movq	(%r8), %r8
	movq	(%r9), %r9
	movq	(%rsi), %rsi
	movq	(%rax), %rax
	movq	(%rbx), %rbx
	movq	(%rcx), %rcx
	movq	(%rdx), %rdx
	movq	(%r10), %r10
	movq	(%r11), %r11
	movq	(%r14), %r14
	movq	(%r8), %r8
	movq	(%r9), %r9
	movq	(%rsi), %rsi
	movq	(%rax), %rax
	movq	(%rbx), %rbx
	movq	(%rcx), %rcx
	movq	(%rdx), %rdx
	movq	(%r10), %r10
	movq	(%r11), %r11
	movq	(%r14), %r14
	movq	(%r8), %r8
	movq	(%r9), %r9
	movq	(%rsi), %rsi
	movq	(%rax), %rax
	movq	(%rbx), %rbx
	movq	(%rcx), %rcx
	movq	(%rdx), %rdx
	movq	(%r10), %r10
	movq	(%r11), %r11
	movq	(%r14), %r14
	movq	(%r8), %r8
	movq	(%r9), %r9
	movq	(%rsi), %rsi
	movq	(%rax), %rax
	movq	(%rbx), %rbx
	movq	(%rcx), %rcx
	movq	(%rdx), %rdx
	movq	(%r10), %r10
	movq	(%r11), %r11
	movq	(%r14), %r14
	movq	(%r8), %r8
	movq	(%r9), %r9
	movq	(%rsi), %rsi
	movq	(%rax), %rax
	movq	(%rbx), %rbx
	movq	(%rcx), %rcx
	movq	(%rdx), %rdx
	movq	(%r10), %r10
	movq	(%r11), %r11
	movq	(%r14), %r14
	movq	(%r8), %r8
	movq	(%r9), %r9
	movq	(%rsi), %rsi
	movq	(%rax), %rax
	movq	(%rbx), %rbx
	movq	(%rcx), %rcx
	movq	(%rdx), %rdx
	movq	(%r10), %r10
	movq	(%r11), %r11
	movq	(%r14), %r14
	movq	(%r8), %r8
	movq	(%r9), %r9
	movq	(%rsi), %rsi
	movq	(%rax), %rax
	movq	(%rbx), %rbx
	movq	(%rcx), %rcx
	movq	(%rdx), %rdx
	movq	(%r10), %r10
	movq	(%r11), %r11
	movq	(%r14), %r14
	movq	(%r8), %r8
	movq	(%r9), %r9
	movq	(%rsi), %rsi
	movq	(%rax), %rax
	movq	(%rbx), %rbx
	movq	(%rcx), %rcx
	movq	(%rdx), %rdx
	movq	(%r10), %r10
	movq	(%r11), %r11
	movq	(%r14), %r14
	movq	(%r8), %r8
	movq	(%r9), %r9
	movq	(%rsi), %rsi
	movq	(%rax), %rax
	movq	(%rbx), %rbx
	movq	(%rcx), %rcx
	movq	(%rdx), %rdx
	movq	(%r10), %r10
	movq	(%r11), %r11
	movq	(%r14), %r14
	movq	(%r8), %r8
	movq	(%r9), %r9
	movq	(%rsi), %rsi
	movq	(%rax), %rax
	movq	(%rbx), %rbx
	movq	(%rcx), %rcx
	movq	(%rdx), %rdx
	movq	(%r10), %r10
	movq	(%r11), %r11
	movq	(%r14), %r14
	movq	(%r8), %r8
	movq	(%r9), %r9
	movq	(%rsi), %rsi
	movq	(%rax), %rax
	movq	(%rbx), %rbx
	movq	(%rcx), %rcx
	movq	(%rdx), %rdx
	movq	(%r10), %r10
	movq	(%r11), %r11
	movq	(%r14), %r14
	movq	(%r8), %r8
	movq	(%r9), %r9
	movq	(%rsi), %rsi
	movq	(%rax), %rax
	movq	(%rbx), %rbx
	movq	(%rcx), %rcx
	movq	(%rdx), %rdx
	movq	(%r10), %r10
	movq	(%r11), %r11
	movq	(%r14), %r14
	movq	(%r8), %r8
	movq	(%r9), %r9
	movq	(%rsi), %rsi
	movq	(%rax), %rax
	movq	(%rbx), %rbx
	movq	(%rcx), %rcx
	movq	(%rdx), %rdx
	movq	(%r10), %r10
	movq	(%r11), %r11
	movq	(%r14), %r14
	movq	(%r8), %r8
	movq	(%r9), %r9
	movq	(%rsi), %rsi
	movq	(%rax), %rax
	movq	(%rbx), %rbx
	movq	(%rcx), %rcx
	movq	(%rdx), %rdx
	movq	(%r10), %r10
	movq	(%r11), %r11
	movq	(%r14), %r14
	movq	(%r8), %r8
	movq	(%r9), %r9
	movq	(%rsi), %rsi
	movq	(%rax), %rax
	movq	(%rbx), %rbx
	movq	(%rcx), %rcx
	movq	(%rdx), %rdx
	movq	(%r10), %r10
	movq	(%r11), %r11
	movq	(%r14), %r14
	movq	(%r8), %r8
	movq	(%r9), %r9
	movq	(%rsi), %rsi
	movq	(%rax), %rax
	movq	(%rbx), %rbx
	movq	(%rcx), %rcx
	movq	(%rdx), %rdx
	movq	(%r10), %r10
	movq	(%r11), %r11
	movq	(%r14), %r14
	movq	(%r8), %r8
	movq	(%r9), %r9
	movq	(%rsi), %rsi
	movq	(%rax), %rax
	movq	(%rbx), %rbx
	movq	(%rcx), %rcx
	movq	(%rdx), %rdx
	movq	(%r10), %r10
	movq	(%r11), %r11
	movq	(%r14), %r14
	movq	(%r8), %r8
	movq	(%r9), %r9
	movq	(%rsi), %rsi
	movq	(%rax), %rax
	movq	(%rbx), %rbx
	movq	(%rcx), %rcx
	movq	(%rdx), %rdx
	movq	(%r10), %r10
	movq	(%r11), %r11
	movq	(%r14), %r14
	movq	(%r8), %r8
	movq	(%r9), %r9
	movq	(%rsi), %rsi
	movq	(%rax), %rax
	movq	(%rbx), %rbx
	movq	(%rcx), %rcx
	movq	(%rdx), %rdx
	movq	(%r10), %r10
	movq	(%r11), %r11
	movq	(%r14), %r14
	movq	(%r8), %r8
	movq	(%r9), %r9
	movq	(%rsi), %rsi
	movq	(%rax), %rax
	movq	(%rbx), %rbx
	movq	(%rcx), %rcx
	movq	(%rdx), %rdx
	movq	(%r10), %r10
	movq	(%r11), %r11
	movq	(%r14), %r14
	movq	(%r8), %r8
	movq	(%r9), %r9
	movq	(%rsi), %rsi
	movq	(%rax), %rax
	movq	(%rbx), %rbx
	movq	(%rcx), %rcx
	movq	(%rdx), %rdx
	movq	(%r10), %r10
	movq	(%r11), %r11
	movq	(%r14), %r14
	movq	(%r8), %r8
	movq	(%r9), %r9
	movq	(%rsi), %rsi
	movq	(%rax), %rax
	movq	(%rbx), %rbx
	movq	(%rcx), %rcx
	movq	(%rdx), %rdx
	movq	(%r10), %r10
	movq	(%r11), %r11
	movq	(%r14), %r14
	movq	(%r8), %r8
	movq	(%r9), %r9
	movq	(%rsi), %rsi
	movq	(%rax), %rax
	movq	(%rbx), %rbx
	movq	(%rcx), %rcx
	movq	(%rdx), %rdx
	movq	(%r10), %r10
	movq	(%r11), %r11
	movq	(%r14), %r14
	movq	(%r8), %r8
	movq	(%r9), %r9
	movq	(%rsi), %rsi
	movq	(%rax), %rax
	movq	(%rbx), %rbx
	movq	(%rcx), %rcx
	movq	(%rdx), %rdx
	movq	(%r10), %r10
	movq	(%r11), %r11
	movq	(%r14), %r14
	movq	(%r8), %r8
	movq	(%r9), %r9
	movq	(%rsi), %rsi
	movq	(%rax), %rax
	movq	(%rbx), %rbx
	movq	(%rcx), %rcx
	movq	(%rdx), %rdx
	movq	(%r10), %r10
	movq	(%r11), %r11
	movq	(%r14), %r14
	movq	(%r8), %r8
	movq	(%r9), %r9
	movq	(%rsi), %rsi
	movq	(%rax), %rax
	movq	(%rbx), %rbx
	movq	(%rcx), %rcx
	movq	(%rdx), %rdx
	movq	(%r10), %r10
	movq	(%r11), %r11
	movq	(%r14), %r14
	movq	(%r8), %r8
	movq	(%r9), %r9
	movq	(%rsi), %rsi
	movq	(%rax), %rax
	movq	(%rbx), %rbx
	movq	(%rcx), %rcx
	movq	(%rdx), %rdx
	movq	(%r10), %r10
	movq	(%r11), %r11
	movq	(%r14), %r14
	movq	(%r8), %r8
	movq	(%r9), %r9
	movq	(%rsi), %rsi
	movq	(%rax), %rax
	movq	(%rbx), %rbx
	movq	(%rcx), %rcx
	movq	(%rdx), %rdx
	movq	(%r10), %r10
	movq	(%r11), %r11
	movq	(%r14), %r14
	movq	(%r8), %r8
	movq	(%r9), %r9
	movq	(%rsi), %rsi
	movq	(%rax), %rax
	movq	(%rbx), %rbx
	movq	(%rcx), %rcx
	movq	(%rdx), %rdx
	movq	(%r10), %r10
	movq	(%r11), %r11
	movq	(%r14), %r14
	movq	(%r8), %r8
	movq	(%r9), %r9
	movq	(%rsi), %rsi
	movq	(%rax), %rax
	movq	(%rbx), %rbx
	movq	(%rcx), %rcx
	movq	(%rdx), %rdx
	movq	(%r10), %r10
	movq	(%r11), %r11
	movq	(%r14), %r14
	movq	(%r8), %r8
	movq	(%r9), %r9
	movq	(%rsi), %rsi
	movq	(%rax), %rax
	movq	(%rbx), %rbx
	movq	(%rcx), %rcx
	movq	(%rdx), %rdx
	movq	(%r10), %r10
	movq	(%r11), %r11
	movq	(%r14), %r14
	movq	(%r8), %r8
	movq	(%r9), %r9
	movq	(%rsi), %rsi
	movq	(%rax), %rax
	movq	(%rbx), %rbx
	movq	(%rcx), %rcx
	movq	(%rdx), %rdx
	movq	(%r10), %r10
	movq	(%r11), %r11
	movq	(%r14), %r14
	movq	(%r8), %r8
	movq	(%r9), %r9
	movq	(%rsi), %rsi
	movq	(%rax), %rax
	movq	(%rbx), %rbx
	movq	(%rcx), %rcx
	movq	(%rdx), %rdx
	movq	(%r10), %r10
	movq	(%r11), %r11
	movq	(%r14), %r14
	movq	(%r8), %r8
	movq	(%r9), %r9
	movq	(%rsi), %rsi
	movq	(%rax), %rax
	movq	(%rbx), %rbx
	movq	(%rcx), %rcx
	movq	(%rdx), %rdx
	movq	(%r10), %r10
	movq	(%r11), %r11
	movq	(%r14), %r14
	movq	(%r8), %r8
	movq	(%r9), %r9
	movq	(%rsi), %rsi
	movq	(%rax), %rax
	movq	(%rbx), %rbx
	movq	(%rcx), %rcx
	movq	(%rdx), %rdx
	movq	(%r10), %r10
	movq	(%r11), %r11
	movq	(%r14), %r14
	movq	(%r8), %r8
	movq	(%r9), %r9
	movq	(%rsi), %rsi
	movq	(%rax), %rax
	movq	(%rbx), %rbx
	movq	(%rcx), %rcx
	movq	(%rdx), %rdx
	movq	(%r10), %r10
	movq	(%r11), %r11
	movq	(%r14), %r14
	movq	(%r8), %r8
	movq	(%r9), %r9
	movq	(%rsi), %rsi
	movq	(%rax), %rax
	movq	(%rbx), %rbx
	movq	(%rcx), %rcx
	movq	(%rdx), %rdx
	movq	(%r10), %r10
	movq	(%r11), %r11
	movq	(%r14), %r14
	movq	(%r8), %r8
	movq	(%r9), %r9
	movq	(%rsi), %rsi
	movq	(%rax), %rax
	movq	(%rbx), %rbx
	movq	(%rcx), %rcx
	movq	(%rdx), %rdx
	movq	(%r10), %r10
	movq	(%r11), %r11
	movq	(%r14), %r14
	movq	(%r8), %r8
	movq	(%r9), %r9
	movq	(%rsi), %rsi
	movq	(%rax), %rax
	movq	(%rbx), %rbx
	movq	(%rcx), %rcx
	movq	(%rdx), %rdx
	movq	(%r10), %r10
	movq	(%r11), %r11
	movq	(%r14), %r14
	movq	(%r8), %r8
	movq	(%r9), %r9
	movq	(%rsi), %rsi
	movq	(%rax), %rax
	movq	(%rbx), %rbx
	movq	(%rcx), %rcx
	movq	(%rdx), %rdx
	movq	(%r10), %r10
	movq	(%r11), %r11
	movq	(%r14), %r14
	movq	(%r8), %r8
	movq	(%r9), %r9
	movq	(%rsi), %rsi
	movq	(%rax), %rax
	movq	(%rbx), %rbx
	movq	(%rcx), %rcx
	movq	(%rdx), %rdx
	movq	(%r10), %r10
	movq	(%r11), %r11
	movq	(%r14), %r14
	movq	(%r8), %r8
	movq	(%r9), %r9
	movq	(%rsi), %rsi
	movq	(%rax), %rax
	movq	(%rbx), %rbx
	movq	(%rcx), %rcx
	movq	(%rdx), %rdx
	movq	(%r10), %r10
	movq	(%r11), %r11
	movq	(%r14), %r14
	movq	(%r8), %r8
	movq	(%r9), %r9
	movq	(%rsi), %rsi
	movq	(%rax), %rax
	movq	(%rbx), %rbx
	movq	(%rcx), %rcx
	movq	(%rdx), %rdx
	movq	(%r10), %r10
	movq	(%r11), %r11
	movq	(%r14), %r14
	movq	(%r8), %r8
	movq	(%r9), %r9
	movq	(%rsi), %rsi
	movq	(%rax), %rax
	movq	(%rbx), %rbx
	movq	(%rcx), %rcx
	movq	(%rdx), %rdx
	movq	(%r10), %r10
	movq	(%r11), %r11
	movq	(%r14), %r14
	movq	(%r8), %r8
	movq	(%r9), %r9
	movq	(%rsi), %rsi
	movq	(%rax), %rax
	movq	(%rbx), %rbx
	movq	(%rcx), %rcx
	movq	(%rdx), %rdx
	movq	(%r10), %r10
	movq	(%r11), %r11
	movq	(%r14), %r14
	movq	(%r8), %r8
	movq	(%r9), %r9
	movq	(%rsi), %rsi
	movq	(%rax), %rax
	movq	(%rbx), %rbx
	movq	(%rcx), %rcx
	movq	(%rdx), %rdx
	movq	(%r10), %r10
	movq	(%r11), %r11
	movq	(%r14), %r14
	movq	(%r8), %r8
	movq	(%r9), %r9
	movq	(%rsi), %rsi
	movq	(%rax), %rax
	movq	(%rbx), %rbx
	movq	(%rcx), %rcx
	movq	(%rdx), %rdx
	movq	(%r10), %r10
	movq	(%r11), %r11
	movq	(%r14), %r14
	movq	(%r8), %r8
	movq	(%r9), %r9
	movq	(%rsi), %rsi
	movq	(%rax), %rax
	movq	(%rbx), %rbx
	movq	(%rcx), %rcx
	movq	(%rdx), %rdx
	movq	(%r10), %r10
	movq	(%r11), %r11
	movq	(%r14), %r14
	movq	(%r8), %r8
	movq	(%r9), %r9
	movq	(%rsi), %rsi
	movq	(%rax), %rax
	movq	(%rbx), %rbx
	movq	(%rcx), %rcx
	movq	(%rdx), %rdx
	movq	(%r10), %r10
	movq	(%r11), %r11
	movq	(%r14), %r14
	movq	(%r8), %r8
	movq	(%r9), %r9
	movq	(%rsi), %rsi
	movq	(%rax), %rax
	movq	(%rbx), %rbx
	movq	(%rcx), %rcx
	movq	(%rdx), %rdx
	movq	(%r10), %r10
	movq	(%r11), %r11
	movq	(%r14), %r14
	movq	(%r8), %r8
	movq	(%r9), %r9
	movq	(%rsi), %rsi
	movq	(%rax), %rax
	movq	(%rbx), %rbx
	movq	(%rcx), %rcx
	movq	(%rdx), %rdx
	movq	(%r10), %r10
	movq	(%r11), %r11
	movq	(%r14), %r14
	movq	(%r8), %r8
	movq	(%r9), %r9
	movq	(%rsi), %rsi
	movq	(%rax), %rax
	movq	(%rbx), %rbx
	movq	(%rcx), %rcx
	movq	(%rdx), %rdx
	movq	(%r10), %r10
	movq	(%r11), %r11
	movq	(%r14), %r14
	movq	(%r8), %r8
	movq	(%r9), %r9
	movq	(%rsi), %rsi
	movq	(%rax), %rax
	movq	(%rbx), %rbx
	movq	(%rcx), %rcx
	movq	(%rdx), %rdx
	movq	(%r10), %r10
	movq	(%r11), %r11
	movq	(%r14), %r14
	movq	(%r8), %r8
	movq	(%r9), %r9
	movq	(%rsi), %rsi
	movq	(%rax), %rax
	movq	(%rbx), %rbx
	movq	(%rcx), %rcx
	movq	(%rdx), %rdx
	movq	(%r10), %r10
	movq	(%r11), %r11
	movq	(%r14), %r14
	movq	(%r8), %r8
	movq	(%r9), %r9
	movq	(%rsi), %rsi
	movq	(%rax), %rax
	movq	(%rbx), %rbx
	movq	(%rcx), %rcx
	movq	(%rdx), %rdx
	movq	(%r10), %r10
	movq	(%r11), %r11
	movq	(%r14), %r14
	movq	(%r8), %r8
	movq	(%r9), %r9
	movq	(%rsi), %rsi
	movq	(%rax), %rax
	movq	(%rbx), %rbx
	movq	(%rcx), %rcx
	movq	(%rdx), %rdx
	movq	(%r10), %r10
	movq	(%r11), %r11
	movq	(%r14), %r14
	movq	(%r8), %r8
	movq	(%r9), %r9
	movq	(%rsi), %rsi
	movq	(%rax), %rax
	movq	(%rbx), %rbx
	movq	(%rcx), %rcx
	movq	(%rdx), %rdx
	movq	(%r10), %r10
	movq	(%r11), %r11
	movq	(%r14), %r14
	movq	(%r8), %r8
	movq	(%r9), %r9
	movq	(%rsi), %rsi
	movq	(%rax), %rax
	movq	(%rbx), %rbx
	movq	(%rcx), %rcx
	movq	(%rdx), %rdx
	movq	(%r10), %r10
	movq	(%r11), %r11
	movq	(%r14), %r14
	movq	(%r8), %r8
	movq	(%r9), %r9
	movq	(%rsi), %rsi
	movq	(%rax), %rax
	movq	(%rbx), %rbx
	movq	(%rcx), %rcx
	movq	(%rdx), %rdx
	movq	(%r10), %r10
	movq	(%r11), %r11
	movq	(%r14), %r14
	movq	(%r8), %r8
	movq	(%r9), %r9
	movq	(%rsi), %rsi
	movq	(%rax), %rax
	movq	(%rbx), %rbx
	movq	(%rcx), %rcx
	movq	(%rdx), %rdx
	movq	(%r10), %r10
	movq	(%r11), %r11
	movq	(%r14), %r14
	movq	(%r8), %r8
	movq	(%r9), %r9
	movq	(%rsi), %rsi
	movq	(%rax), %rax
	movq	(%rbx), %rbx
	movq	(%rcx), %rcx
	movq	(%rdx), %rdx
	movq	(%r10), %r10
	movq	(%r11), %r11
	movq	(%r14), %r14
	movq	(%r8), %r8
	movq	(%r9), %r9
	movq	(%rsi), %rsi
	movq	(%rax), %rax
	movq	(%rbx), %rbx
	movq	(%rcx), %rcx
	movq	(%rdx), %rdx
	movq	(%r10), %r10
	movq	(%r11), %r11
	movq	(%r14), %r14
	movq	(%r8), %r8
	movq	(%r9), %r9
	movq	(%rsi), %rsi
	movq	(%rax), %rax
	movq	(%rbx), %rbx
	movq	(%rcx), %rcx
	movq	(%rdx), %rdx
	movq	(%r10), %r10
	movq	(%r11), %r11
	movq	(%r14), %r14
	movq	(%r8), %r8
	movq	(%r9), %r9
	movq	(%rsi), %rsi
	movq	(%rax), %rax
	movq	(%rbx), %rbx
	movq	(%rcx), %rcx
	movq	(%rdx), %rdx
	movq	(%r10), %r10
	movq	(%r11), %r11
	movq	(%r14), %r14
	movq	(%r8), %r8
	movq	(%r9), %r9
	movq	(%rsi), %rsi
	movq	(%rax), %rax
	movq	(%rbx), %rbx
	movq	(%rcx), %rcx
	movq	(%rdx), %rdx
	movq	(%r10), %r10
	movq	(%r11), %r11
	movq	(%r14), %r14
	movq	(%r8), %r8
	movq	(%r9), %r9
	movq	(%rsi), %rsi
	movq	(%rax), %rax
	movq	(%rbx), %rbx
	movq	(%rcx), %rcx
	movq	(%rdx), %rdx
	movq	(%r10), %r10
	movq	(%r11), %r11
	movq	(%r14), %r14
	movq	(%r8), %r8
	movq	(%r9), %r9
	movq	(%rsi), %rsi
	movq	(%rax), %rax
	movq	(%rbx), %rbx
	movq	(%rcx), %rcx
	movq	(%rdx), %rdx
	movq	(%r10), %r10
	movq	(%r11), %r11
	movq	(%r14), %r14
	movq	(%r8), %r8
	movq	(%r9), %r9
	movq	(%rsi), %rsi
	movq	(%rax), %rax
	movq	(%rbx), %rbx
	movq	(%rcx), %rcx
	movq	(%rdx), %rdx
	movq	(%r10), %r10
	movq	(%r11), %r11
	movq	(%r14), %r14
	movq	(%r8), %r8
	movq	(%r9), %r9
	movq	(%rsi), %rsi
	movq	(%rax), %rax
	movq	(%rbx), %rbx
	movq	(%rcx), %rcx
	movq	(%rdx), %rdx
	movq	(%r10), %r10
	movq	(%r11), %r11
	movq	(%r14), %r14
	movq	(%r8), %r8
	movq	(%r9), %r9
	movq	(%rsi), %rsi
	movq	(%rax), %rax
	movq	(%rbx), %rbx
	movq	(%rcx), %rcx
	movq	(%rdx), %rdx
	movq	(%r10), %r10
	movq	(%r11), %r11
	movq	(%r14), %r14
	movq	(%r8), %r8
	movq	(%r9), %r9
	movq	(%rsi), %rsi
	movq	(%rax), %rax
	movq	(%rbx), %rbx
	movq	(%rcx), %rcx
	movq	(%rdx), %rdx
	movq	(%r10), %r10
	movq	(%r11), %r11
	movq	(%r14), %r14
	movq	(%r8), %r8
	movq	(%r9), %r9
	movq	(%rsi), %rsi
	movq	(%rax), %rax
	movq	(%rbx), %rbx
	movq	(%rcx), %rcx
	movq	(%rdx), %rdx
	movq	(%r10), %r10
	movq	(%r11), %r11
	movq	(%r14), %r14
	movq	(%r8), %r8
	movq	(%r9), %r9
	movq	(%rsi), %rsi
	movq	(%rax), %rax
	movq	(%rbx), %rbx
	movq	(%rcx), %rcx
	movq	(%rdx), %rdx
	movq	(%r10), %r10
	movq	(%r11), %r11
	movq	(%r14), %r14
	movq	(%r8), %r8
	movq	(%r9), %r9
	movq	(%rsi), %rsi
	movq	(%rax), %rax
	movq	(%rbx), %rbx
	movq	(%rcx), %rcx
	movq	(%rdx), %rdx
	movq	(%r10), %r10
	movq	(%r11), %r11
	movq	(%r14), %r14
	movq	(%r8), %r8
	movq	(%r9), %r9
	movq	(%rsi), %rsi
	movq	(%rax), %rax
	movq	(%rbx), %rbx
	movq	(%rcx), %rcx
	movq	(%rdx), %rdx
	movq	(%r10), %r10
	movq	(%r11), %r11
	movq	(%r14), %r14
	movq	(%r8), %r8
	movq	(%r9), %r9
	movq	(%rsi), %rsi
	movq	(%rax), %rax
	movq	(%rbx), %rbx
	movq	(%rcx), %rcx
	movq	(%rdx), %rdx
	movq	%rdi, %r13
	movq	(%r10), %rdi
	movq	(%r11), %r12
	movq	(%r14), %r10
	movq	(%r8), %r8
	movq	(%r9), %r9
	movq	(%rsi), %rsi
	movq	(%rax), %rax
	movq	(%rbx), %rbx
	movq	(%rcx), %r11
	movq	(%rdx), %r14
	movq	(%rdi), %r15
	movq	%r13, %rdi
	movq	(%r12), %r13
	movq	(%r10), %r12
	movq	(%r8), %r8
	movq	(%r9), %r9
	addq	$-1, %rdi
	jne	.LBB9_6
.LBB9_7:
	movq	%rsi, mem_benchmark_9.sp0(%rip)
	movq	%rax, mem_benchmark_9.sp1(%rip)
	movq	%rbx, mem_benchmark_9.sp2(%rip)
	movq	%r11, mem_benchmark_9.sp3(%rip)
	movq	%r14, mem_benchmark_9.sp4(%rip)
	movq	%r15, mem_benchmark_9.sp5(%rip)
	movq	%r13, mem_benchmark_9.sp6(%rip)
	movq	%r12, mem_benchmark_9.sp7(%rip)
	movq	%r8, mem_benchmark_9.sp8(%rip)
	movq	%r9, mem_benchmark_9.sp9(%rip)
	movq	-48(%rbp), %rax         # 8-byte Reload
	movq	(%rax), %rax
	movq	%rax, mem_benchmark_9.addr_save(%rip)
	movb	$1, mem_benchmark_rerun(%rip)
	popq	%rbx
	popq	%r12
	popq	%r13
	popq	%r14
	popq	%r15
	popq	%rbp
	.cfi_def_cfa %rsp, 8
	retq
.Lfunc_end9:
	.size	mem_benchmark_9, .Lfunc_end9-mem_benchmark_9
	.cfi_endproc
                                        # -- End function
	.globl	mem_benchmark_10        # -- Begin function mem_benchmark_10
	.p2align	4, 0x90
	.type	mem_benchmark_10,@function
mem_benchmark_10:                       # @mem_benchmark_10
	.cfi_startproc
# %bb.0:
	pushq	%rbp
	.cfi_def_cfa_offset 16
	.cfi_offset %rbp, -16
	movq	%rsp, %rbp
	.cfi_def_cfa_register %rbp
	pushq	%r15
	pushq	%r14
	pushq	%r13
	pushq	%r12
	pushq	%rbx
	.cfi_offset %rbx, -56
	.cfi_offset %r12, -48
	.cfi_offset %r13, -40
	.cfi_offset %r14, -32
	.cfi_offset %r15, -24
	cmpb	$1, mem_benchmark_rerun(%rip)
	movq	%rsi, -48(%rbp)         # 8-byte Spill
	jne	.LBB10_4
# %bb.1:
	movq	mem_benchmark_10.addr_save(%rip), %rdx
	leaq	16(%rsi), %rbx
	leaq	24(%rsi), %rax
	leaq	32(%rsi), %r10
	leaq	40(%rsi), %r11
	leaq	48(%rsi), %r14
	leaq	56(%rsi), %r15
	leaq	64(%rsi), %r12
	leaq	72(%rsi), %r9
	leaq	80(%rsi), %r8
	leaq	88(%rsi), %rcx
	movq	%rcx, -56(%rbp)         # 8-byte Spill
	cmpq	(%rsi), %rdx
	movl	$mem_benchmark_10.sp0, %edx
	cmovneq	%rbx, %rdx
	movq	(%rdx), %rsi
	movl	$mem_benchmark_10.sp1, %edx
	cmovneq	%rax, %rdx
	movq	(%rdx), %rbx
	movl	$mem_benchmark_10.sp2, %eax
	cmovneq	%r10, %rax
	movq	(%rax), %rcx
	movl	$mem_benchmark_10.sp3, %eax
	cmovneq	%r11, %rax
	movq	(%rax), %rdx
	movl	$mem_benchmark_10.sp4, %eax
	cmovneq	%r14, %rax
	movq	(%rax), %r14
	movl	$mem_benchmark_10.sp5, %eax
	cmovneq	%r15, %rax
	movq	(%rax), %r15
	movl	$mem_benchmark_10.sp6, %eax
	cmovneq	%r12, %rax
	movq	(%rax), %r12
	movl	$mem_benchmark_10.sp7, %eax
	cmovneq	%r9, %rax
	movq	(%rax), %r13
	movl	$mem_benchmark_10.sp8, %eax
	cmovneq	%r8, %rax
	movq	(%rax), %r8
	movl	$mem_benchmark_10.sp9, %eax
	cmovneq	-56(%rbp), %rax         # 8-byte Folded Reload
	movq	(%rax), %r9
	je	.LBB10_3
# %bb.2:
	movq	%rsi, %r10
	movq	-48(%rbp), %rsi         # 8-byte Reload
	jmp	.LBB10_5
.LBB10_4:
	movq	16(%rsi), %r10
	movq	24(%rsi), %rbx
	movq	32(%rsi), %rcx
	movq	40(%rsi), %rdx
	movq	48(%rsi), %r14
	movq	56(%rsi), %r15
	movq	64(%rsi), %r12
	movq	72(%rsi), %r13
	movq	80(%rsi), %r8
	movq	88(%rsi), %r9
.LBB10_5:
	leaq	96(%rsi), %rax
	movq	%r10, %rsi
	jmp	.LBB10_6
.LBB10_3:
	movl	$mem_benchmark_10.sp10, %eax
.LBB10_6:
	movq	(%rax), %r10
	testq	%rdi, %rdi
	je	.LBB10_8
	.p2align	4, 0x90
.LBB10_7:                               # =>This Inner Loop Header: Depth=1
	movq	(%rsi), %rsi
	movq	(%rbx), %rbx
	movq	(%rcx), %rcx
	movq	(%rdx), %rdx
	movq	(%r14), %rax
	movq	(%r15), %r11
	movq	(%r12), %r14
	movq	(%r13), %r15
	movq	(%r8), %r8
	movq	(%r9), %r9
	movq	(%r10), %r10
	movq	(%rsi), %rsi
	movq	(%rbx), %rbx
	movq	(%rcx), %rcx
	movq	(%rdx), %rdx
	movq	(%rax), %rax
	movq	(%r11), %r11
	movq	(%r14), %r14
	movq	(%r15), %r15
	movq	(%r8), %r8
	movq	(%r9), %r9
	movq	(%r10), %r10
	movq	(%rsi), %rsi
	movq	(%rbx), %rbx
	movq	(%rcx), %rcx
	movq	(%rdx), %rdx
	movq	(%rax), %rax
	movq	(%r11), %r11
	movq	(%r14), %r14
	movq	(%r15), %r15
	movq	(%r8), %r8
	movq	(%r9), %r9
	movq	(%r10), %r10
	movq	(%rsi), %rsi
	movq	(%rbx), %rbx
	movq	(%rcx), %rcx
	movq	(%rdx), %rdx
	movq	(%rax), %rax
	movq	(%r11), %r11
	movq	(%r14), %r14
	movq	(%r15), %r15
	movq	(%r8), %r8
	movq	(%r9), %r9
	movq	(%r10), %r10
	movq	(%rsi), %rsi
	movq	(%rbx), %rbx
	movq	(%rcx), %rcx
	movq	(%rdx), %rdx
	movq	(%rax), %rax
	movq	(%r11), %r11
	movq	(%r14), %r14
	movq	(%r15), %r15
	movq	(%r8), %r8
	movq	(%r9), %r9
	movq	(%r10), %r10
	movq	(%rsi), %rsi
	movq	(%rbx), %rbx
	movq	(%rcx), %rcx
	movq	(%rdx), %rdx
	movq	(%rax), %rax
	movq	(%r11), %r11
	movq	(%r14), %r14
	movq	(%r15), %r15
	movq	(%r8), %r8
	movq	(%r9), %r9
	movq	(%r10), %r10
	movq	(%rsi), %rsi
	movq	(%rbx), %rbx
	movq	(%rcx), %rcx
	movq	(%rdx), %rdx
	movq	(%rax), %rax
	movq	(%r11), %r11
	movq	(%r14), %r14
	movq	(%r15), %r15
	movq	(%r8), %r8
	movq	(%r9), %r9
	movq	(%r10), %r10
	movq	(%rsi), %rsi
	movq	(%rbx), %rbx
	movq	(%rcx), %rcx
	movq	(%rdx), %rdx
	movq	(%rax), %rax
	movq	(%r11), %r11
	movq	(%r14), %r14
	movq	(%r15), %r15
	movq	(%r8), %r8
	movq	(%r9), %r9
	movq	(%r10), %r10
	movq	(%rsi), %rsi
	movq	(%rbx), %rbx
	movq	(%rcx), %rcx
	movq	(%rdx), %rdx
	movq	(%rax), %rax
	movq	(%r11), %r11
	movq	(%r14), %r14
	movq	(%r15), %r15
	movq	(%r8), %r8
	movq	(%r9), %r9
	movq	(%r10), %r10
	movq	(%rsi), %rsi
	movq	(%rbx), %rbx
	movq	(%rcx), %rcx
	movq	(%rdx), %rdx
	movq	(%rax), %rax
	movq	(%r11), %r11
	movq	(%r14), %r14
	movq	(%r15), %r15
	movq	(%r8), %r8
	movq	(%r9), %r9
	movq	(%r10), %r10
	movq	(%rsi), %rsi
	movq	(%rbx), %rbx
	movq	(%rcx), %rcx
	movq	(%rdx), %rdx
	movq	(%rax), %rax
	movq	(%r11), %r11
	movq	(%r14), %r14
	movq	(%r15), %r15
	movq	(%r8), %r8
	movq	(%r9), %r9
	movq	(%r10), %r10
	movq	(%rsi), %rsi
	movq	(%rbx), %rbx
	movq	(%rcx), %rcx
	movq	(%rdx), %rdx
	movq	(%rax), %rax
	movq	(%r11), %r11
	movq	(%r14), %r14
	movq	(%r15), %r15
	movq	(%r8), %r8
	movq	(%r9), %r9
	movq	(%r10), %r10
	movq	(%rsi), %rsi
	movq	(%rbx), %rbx
	movq	(%rcx), %rcx
	movq	(%rdx), %rdx
	movq	(%rax), %rax
	movq	(%r11), %r11
	movq	(%r14), %r14
	movq	(%r15), %r15
	movq	(%r8), %r8
	movq	(%r9), %r9
	movq	(%r10), %r10
	movq	(%rsi), %rsi
	movq	(%rbx), %rbx
	movq	(%rcx), %rcx
	movq	(%rdx), %rdx
	movq	(%rax), %rax
	movq	(%r11), %r11
	movq	(%r14), %r14
	movq	(%r15), %r15
	movq	(%r8), %r8
	movq	(%r9), %r9
	movq	(%r10), %r10
	movq	(%rsi), %rsi
	movq	(%rbx), %rbx
	movq	(%rcx), %rcx
	movq	(%rdx), %rdx
	movq	(%rax), %rax
	movq	(%r11), %r11
	movq	(%r14), %r14
	movq	(%r15), %r15
	movq	(%r8), %r8
	movq	(%r9), %r9
	movq	(%r10), %r10
	movq	(%rsi), %rsi
	movq	(%rbx), %rbx
	movq	(%rcx), %rcx
	movq	(%rdx), %rdx
	movq	(%rax), %rax
	movq	(%r11), %r11
	movq	(%r14), %r14
	movq	(%r15), %r15
	movq	(%r8), %r8
	movq	(%r9), %r9
	movq	(%r10), %r10
	movq	(%rsi), %rsi
	movq	(%rbx), %rbx
	movq	(%rcx), %rcx
	movq	(%rdx), %rdx
	movq	(%rax), %rax
	movq	(%r11), %r11
	movq	(%r14), %r14
	movq	(%r15), %r15
	movq	(%r8), %r8
	movq	(%r9), %r9
	movq	(%r10), %r10
	movq	(%rsi), %rsi
	movq	(%rbx), %rbx
	movq	(%rcx), %rcx
	movq	(%rdx), %rdx
	movq	(%rax), %rax
	movq	(%r11), %r11
	movq	(%r14), %r14
	movq	(%r15), %r15
	movq	(%r8), %r8
	movq	(%r9), %r9
	movq	(%r10), %r10
	movq	(%rsi), %rsi
	movq	(%rbx), %rbx
	movq	(%rcx), %rcx
	movq	(%rdx), %rdx
	movq	(%rax), %rax
	movq	(%r11), %r11
	movq	(%r14), %r14
	movq	(%r15), %r15
	movq	(%r8), %r8
	movq	(%r9), %r9
	movq	(%r10), %r10
	movq	(%rsi), %rsi
	movq	(%rbx), %rbx
	movq	(%rcx), %rcx
	movq	(%rdx), %rdx
	movq	(%rax), %rax
	movq	(%r11), %r11
	movq	(%r14), %r14
	movq	(%r15), %r15
	movq	(%r8), %r8
	movq	(%r9), %r9
	movq	(%r10), %r10
	movq	(%rsi), %rsi
	movq	(%rbx), %rbx
	movq	(%rcx), %rcx
	movq	(%rdx), %rdx
	movq	(%rax), %rax
	movq	(%r11), %r11
	movq	(%r14), %r14
	movq	(%r15), %r15
	movq	(%r8), %r8
	movq	(%r9), %r9
	movq	(%r10), %r10
	movq	(%rsi), %rsi
	movq	(%rbx), %rbx
	movq	(%rcx), %rcx
	movq	(%rdx), %rdx
	movq	(%rax), %rax
	movq	(%r11), %r11
	movq	(%r14), %r14
	movq	(%r15), %r15
	movq	(%r8), %r8
	movq	(%r9), %r9
	movq	(%r10), %r10
	movq	(%rsi), %rsi
	movq	(%rbx), %rbx
	movq	(%rcx), %rcx
	movq	(%rdx), %rdx
	movq	(%rax), %rax
	movq	(%r11), %r11
	movq	(%r14), %r14
	movq	(%r15), %r15
	movq	(%r8), %r8
	movq	(%r9), %r9
	movq	(%r10), %r10
	movq	(%rsi), %rsi
	movq	(%rbx), %rbx
	movq	(%rcx), %rcx
	movq	(%rdx), %rdx
	movq	(%rax), %rax
	movq	(%r11), %r11
	movq	(%r14), %r14
	movq	(%r15), %r15
	movq	(%r8), %r8
	movq	(%r9), %r9
	movq	(%r10), %r10
	movq	(%rsi), %rsi
	movq	(%rbx), %rbx
	movq	(%rcx), %rcx
	movq	(%rdx), %rdx
	movq	(%rax), %rax
	movq	(%r11), %r11
	movq	(%r14), %r14
	movq	(%r15), %r15
	movq	(%r8), %r8
	movq	(%r9), %r9
	movq	(%r10), %r10
	movq	(%rsi), %rsi
	movq	(%rbx), %rbx
	movq	(%rcx), %rcx
	movq	(%rdx), %rdx
	movq	(%rax), %rax
	movq	(%r11), %r11
	movq	(%r14), %r14
	movq	(%r15), %r15
	movq	(%r8), %r8
	movq	(%r9), %r9
	movq	(%r10), %r10
	movq	(%rsi), %rsi
	movq	(%rbx), %rbx
	movq	(%rcx), %rcx
	movq	(%rdx), %rdx
	movq	(%rax), %rax
	movq	(%r11), %r11
	movq	(%r14), %r14
	movq	(%r15), %r15
	movq	(%r8), %r8
	movq	(%r9), %r9
	movq	(%r10), %r10
	movq	(%rsi), %rsi
	movq	(%rbx), %rbx
	movq	(%rcx), %rcx
	movq	(%rdx), %rdx
	movq	(%rax), %rax
	movq	(%r11), %r11
	movq	(%r14), %r14
	movq	(%r15), %r15
	movq	(%r8), %r8
	movq	(%r9), %r9
	movq	(%r10), %r10
	movq	(%rsi), %rsi
	movq	(%rbx), %rbx
	movq	(%rcx), %rcx
	movq	(%rdx), %rdx
	movq	(%rax), %rax
	movq	(%r11), %r11
	movq	(%r14), %r14
	movq	(%r15), %r15
	movq	(%r8), %r8
	movq	(%r9), %r9
	movq	(%r10), %r10
	movq	(%rsi), %rsi
	movq	(%rbx), %rbx
	movq	(%rcx), %rcx
	movq	(%rdx), %rdx
	movq	(%rax), %rax
	movq	(%r11), %r11
	movq	(%r14), %r14
	movq	(%r15), %r15
	movq	(%r8), %r8
	movq	(%r9), %r9
	movq	(%r10), %r10
	movq	(%rsi), %rsi
	movq	(%rbx), %rbx
	movq	(%rcx), %rcx
	movq	(%rdx), %rdx
	movq	(%rax), %rax
	movq	(%r11), %r11
	movq	(%r14), %r14
	movq	(%r15), %r15
	movq	(%r8), %r8
	movq	(%r9), %r9
	movq	(%r10), %r10
	movq	(%rsi), %rsi
	movq	(%rbx), %rbx
	movq	(%rcx), %rcx
	movq	(%rdx), %rdx
	movq	(%rax), %rax
	movq	(%r11), %r11
	movq	(%r14), %r14
	movq	(%r15), %r15
	movq	(%r8), %r8
	movq	(%r9), %r9
	movq	(%r10), %r10
	movq	(%rsi), %rsi
	movq	(%rbx), %rbx
	movq	(%rcx), %rcx
	movq	(%rdx), %rdx
	movq	(%rax), %rax
	movq	(%r11), %r11
	movq	(%r14), %r14
	movq	(%r15), %r15
	movq	(%r8), %r8
	movq	(%r9), %r9
	movq	(%r10), %r10
	movq	(%rsi), %rsi
	movq	(%rbx), %rbx
	movq	(%rcx), %rcx
	movq	(%rdx), %rdx
	movq	(%rax), %rax
	movq	(%r11), %r11
	movq	(%r14), %r14
	movq	(%r15), %r15
	movq	(%r8), %r8
	movq	(%r9), %r9
	movq	(%r10), %r10
	movq	(%rsi), %rsi
	movq	(%rbx), %rbx
	movq	(%rcx), %rcx
	movq	(%rdx), %rdx
	movq	(%rax), %rax
	movq	(%r11), %r11
	movq	(%r14), %r14
	movq	(%r15), %r15
	movq	(%r8), %r8
	movq	(%r9), %r9
	movq	(%r10), %r10
	movq	(%rsi), %rsi
	movq	(%rbx), %rbx
	movq	(%rcx), %rcx
	movq	(%rdx), %rdx
	movq	(%rax), %rax
	movq	(%r11), %r11
	movq	(%r14), %r14
	movq	(%r15), %r15
	movq	(%r8), %r8
	movq	(%r9), %r9
	movq	(%r10), %r10
	movq	(%rsi), %rsi
	movq	(%rbx), %rbx
	movq	(%rcx), %rcx
	movq	(%rdx), %rdx
	movq	(%rax), %rax
	movq	(%r11), %r11
	movq	(%r14), %r14
	movq	(%r15), %r15
	movq	(%r8), %r8
	movq	(%r9), %r9
	movq	(%r10), %r10
	movq	(%rsi), %rsi
	movq	(%rbx), %rbx
	movq	(%rcx), %rcx
	movq	(%rdx), %rdx
	movq	(%rax), %rax
	movq	(%r11), %r11
	movq	(%r14), %r14
	movq	(%r15), %r15
	movq	(%r8), %r8
	movq	(%r9), %r9
	movq	(%r10), %r10
	movq	(%rsi), %rsi
	movq	(%rbx), %rbx
	movq	(%rcx), %rcx
	movq	(%rdx), %rdx
	movq	(%rax), %rax
	movq	(%r11), %r11
	movq	(%r14), %r14
	movq	(%r15), %r15
	movq	(%r8), %r8
	movq	(%r9), %r9
	movq	(%r10), %r10
	movq	(%rsi), %rsi
	movq	(%rbx), %rbx
	movq	(%rcx), %rcx
	movq	(%rdx), %rdx
	movq	(%rax), %rax
	movq	(%r11), %r11
	movq	(%r14), %r14
	movq	(%r15), %r15
	movq	(%r8), %r8
	movq	(%r9), %r9
	movq	(%r10), %r10
	movq	(%rsi), %rsi
	movq	(%rbx), %rbx
	movq	(%rcx), %rcx
	movq	(%rdx), %rdx
	movq	(%rax), %rax
	movq	(%r11), %r11
	movq	(%r14), %r14
	movq	(%r15), %r15
	movq	(%r8), %r8
	movq	(%r9), %r9
	movq	(%r10), %r10
	movq	(%rsi), %rsi
	movq	(%rbx), %rbx
	movq	(%rcx), %rcx
	movq	(%rdx), %rdx
	movq	(%rax), %rax
	movq	(%r11), %r11
	movq	(%r14), %r14
	movq	(%r15), %r15
	movq	(%r8), %r8
	movq	(%r9), %r9
	movq	(%r10), %r10
	movq	(%rsi), %rsi
	movq	(%rbx), %rbx
	movq	(%rcx), %rcx
	movq	(%rdx), %rdx
	movq	(%rax), %rax
	movq	(%r11), %r11
	movq	(%r14), %r14
	movq	(%r15), %r15
	movq	(%r8), %r8
	movq	(%r9), %r9
	movq	(%r10), %r10
	movq	(%rsi), %rsi
	movq	(%rbx), %rbx
	movq	(%rcx), %rcx
	movq	(%rdx), %rdx
	movq	(%rax), %rax
	movq	(%r11), %r11
	movq	(%r14), %r14
	movq	(%r15), %r15
	movq	(%r8), %r8
	movq	(%r9), %r9
	movq	(%r10), %r10
	movq	(%rsi), %rsi
	movq	(%rbx), %rbx
	movq	(%rcx), %rcx
	movq	(%rdx), %rdx
	movq	(%rax), %rax
	movq	(%r11), %r11
	movq	(%r14), %r14
	movq	(%r15), %r15
	movq	(%r8), %r8
	movq	(%r9), %r9
	movq	(%r10), %r10
	movq	(%rsi), %rsi
	movq	(%rbx), %rbx
	movq	(%rcx), %rcx
	movq	(%rdx), %rdx
	movq	(%rax), %rax
	movq	(%r11), %r11
	movq	(%r14), %r14
	movq	(%r15), %r15
	movq	(%r8), %r8
	movq	(%r9), %r9
	movq	(%r10), %r10
	movq	(%rsi), %rsi
	movq	(%rbx), %rbx
	movq	(%rcx), %rcx
	movq	(%rdx), %rdx
	movq	(%rax), %rax
	movq	(%r11), %r11
	movq	(%r14), %r14
	movq	(%r15), %r15
	movq	(%r8), %r8
	movq	(%r9), %r9
	movq	(%r10), %r10
	movq	(%rsi), %rsi
	movq	(%rbx), %rbx
	movq	(%rcx), %rcx
	movq	(%rdx), %rdx
	movq	(%rax), %rax
	movq	(%r11), %r11
	movq	(%r14), %r14
	movq	(%r15), %r15
	movq	(%r8), %r8
	movq	(%r9), %r9
	movq	(%r10), %r10
	movq	(%rsi), %rsi
	movq	(%rbx), %rbx
	movq	(%rcx), %rcx
	movq	(%rdx), %rdx
	movq	(%rax), %rax
	movq	(%r11), %r11
	movq	(%r14), %r14
	movq	(%r15), %r15
	movq	(%r8), %r8
	movq	(%r9), %r9
	movq	(%r10), %r10
	movq	(%rsi), %rsi
	movq	(%rbx), %rbx
	movq	(%rcx), %rcx
	movq	(%rdx), %rdx
	movq	(%rax), %rax
	movq	(%r11), %r11
	movq	(%r14), %r14
	movq	(%r15), %r15
	movq	(%r8), %r8
	movq	(%r9), %r9
	movq	(%r10), %r10
	movq	(%rsi), %rsi
	movq	(%rbx), %rbx
	movq	(%rcx), %rcx
	movq	(%rdx), %rdx
	movq	(%rax), %rax
	movq	(%r11), %r11
	movq	(%r14), %r14
	movq	(%r15), %r15
	movq	(%r8), %r8
	movq	(%r9), %r9
	movq	(%r10), %r10
	movq	(%rsi), %rsi
	movq	(%rbx), %rbx
	movq	(%rcx), %rcx
	movq	(%rdx), %rdx
	movq	(%rax), %rax
	movq	(%r11), %r11
	movq	(%r14), %r14
	movq	(%r15), %r15
	movq	(%r8), %r8
	movq	(%r9), %r9
	movq	(%r10), %r10
	movq	(%rsi), %rsi
	movq	(%rbx), %rbx
	movq	(%rcx), %rcx
	movq	(%rdx), %rdx
	movq	(%rax), %rax
	movq	(%r11), %r11
	movq	(%r14), %r14
	movq	(%r15), %r15
	movq	(%r8), %r8
	movq	(%r9), %r9
	movq	(%r10), %r10
	movq	(%rsi), %rsi
	movq	(%rbx), %rbx
	movq	(%rcx), %rcx
	movq	(%rdx), %rdx
	movq	(%rax), %rax
	movq	(%r11), %r11
	movq	(%r14), %r14
	movq	(%r15), %r15
	movq	(%r8), %r8
	movq	(%r9), %r9
	movq	(%r10), %r10
	movq	(%rsi), %rsi
	movq	(%rbx), %rbx
	movq	(%rcx), %rcx
	movq	(%rdx), %rdx
	movq	(%rax), %rax
	movq	(%r11), %r11
	movq	(%r14), %r14
	movq	(%r15), %r15
	movq	(%r8), %r8
	movq	(%r9), %r9
	movq	(%r10), %r10
	movq	(%rsi), %rsi
	movq	(%rbx), %rbx
	movq	(%rcx), %rcx
	movq	(%rdx), %rdx
	movq	(%rax), %rax
	movq	(%r11), %r11
	movq	(%r14), %r14
	movq	(%r15), %r15
	movq	(%r8), %r8
	movq	(%r9), %r9
	movq	(%r10), %r10
	movq	(%rsi), %rsi
	movq	(%rbx), %rbx
	movq	(%rcx), %rcx
	movq	(%rdx), %rdx
	movq	(%rax), %rax
	movq	(%r11), %r11
	movq	(%r14), %r14
	movq	(%r15), %r15
	movq	(%r8), %r8
	movq	(%r9), %r9
	movq	(%r10), %r10
	movq	(%rsi), %rsi
	movq	(%rbx), %rbx
	movq	(%rcx), %rcx
	movq	(%rdx), %rdx
	movq	(%rax), %rax
	movq	(%r11), %r11
	movq	(%r14), %r14
	movq	(%r15), %r15
	movq	(%r8), %r8
	movq	(%r9), %r9
	movq	(%r10), %r10
	movq	(%rsi), %rsi
	movq	(%rbx), %rbx
	movq	(%rcx), %rcx
	movq	(%rdx), %rdx
	movq	(%rax), %rax
	movq	(%r11), %r11
	movq	(%r14), %r14
	movq	(%r15), %r15
	movq	(%r8), %r8
	movq	(%r9), %r9
	movq	(%r10), %r10
	movq	(%rsi), %rsi
	movq	(%rbx), %rbx
	movq	(%rcx), %rcx
	movq	(%rdx), %rdx
	movq	(%rax), %rax
	movq	(%r11), %r11
	movq	(%r14), %r14
	movq	(%r15), %r15
	movq	(%r8), %r8
	movq	(%r9), %r9
	movq	(%r10), %r10
	movq	(%rsi), %rsi
	movq	(%rbx), %rbx
	movq	(%rcx), %rcx
	movq	(%rdx), %rdx
	movq	(%rax), %rax
	movq	(%r11), %r11
	movq	(%r14), %r14
	movq	(%r15), %r15
	movq	(%r8), %r8
	movq	(%r9), %r9
	movq	(%r10), %r10
	movq	(%rsi), %rsi
	movq	(%rbx), %rbx
	movq	(%rcx), %rcx
	movq	(%rdx), %rdx
	movq	(%rax), %rax
	movq	(%r11), %r11
	movq	(%r14), %r14
	movq	(%r15), %r15
	movq	(%r8), %r8
	movq	(%r9), %r9
	movq	(%r10), %r10
	movq	(%rsi), %rsi
	movq	(%rbx), %rbx
	movq	(%rcx), %rcx
	movq	(%rdx), %rdx
	movq	(%rax), %rax
	movq	(%r11), %r11
	movq	(%r14), %r14
	movq	(%r15), %r15
	movq	(%r8), %r8
	movq	(%r9), %r9
	movq	(%r10), %r10
	movq	(%rsi), %rsi
	movq	(%rbx), %rbx
	movq	(%rcx), %rcx
	movq	(%rdx), %rdx
	movq	(%rax), %rax
	movq	(%r11), %r11
	movq	(%r14), %r14
	movq	(%r15), %r15
	movq	(%r8), %r8
	movq	(%r9), %r9
	movq	(%r10), %r10
	movq	(%rsi), %rsi
	movq	(%rbx), %rbx
	movq	(%rcx), %rcx
	movq	(%rdx), %rdx
	movq	(%rax), %rax
	movq	(%r11), %r11
	movq	(%r14), %r14
	movq	(%r15), %r15
	movq	(%r8), %r8
	movq	(%r9), %r9
	movq	(%r10), %r10
	movq	(%rsi), %rsi
	movq	(%rbx), %rbx
	movq	(%rcx), %rcx
	movq	(%rdx), %rdx
	movq	(%rax), %rax
	movq	(%r11), %r11
	movq	(%r14), %r14
	movq	(%r15), %r15
	movq	(%r8), %r8
	movq	(%r9), %r9
	movq	(%r10), %r10
	movq	(%rsi), %rsi
	movq	(%rbx), %rbx
	movq	(%rcx), %rcx
	movq	(%rdx), %rdx
	movq	(%rax), %rax
	movq	(%r11), %r11
	movq	(%r14), %r14
	movq	(%r15), %r15
	movq	(%r8), %r8
	movq	(%r9), %r9
	movq	(%r10), %r10
	movq	(%rsi), %rsi
	movq	(%rbx), %rbx
	movq	(%rcx), %rcx
	movq	(%rdx), %rdx
	movq	(%rax), %rax
	movq	(%r11), %r11
	movq	(%r14), %r14
	movq	(%r15), %r15
	movq	(%r8), %r8
	movq	(%r9), %r9
	movq	(%r10), %r10
	movq	(%rsi), %rsi
	movq	(%rbx), %rbx
	movq	(%rcx), %rcx
	movq	(%rdx), %rdx
	movq	(%rax), %rax
	movq	(%r11), %r11
	movq	(%r14), %r14
	movq	(%r15), %r15
	movq	(%r8), %r8
	movq	(%r9), %r9
	movq	(%r10), %r10
	movq	(%rsi), %rsi
	movq	(%rbx), %rbx
	movq	(%rcx), %rcx
	movq	(%rdx), %rdx
	movq	(%rax), %rax
	movq	(%r11), %r11
	movq	(%r14), %r14
	movq	(%r15), %r15
	movq	(%r8), %r8
	movq	(%r9), %r9
	movq	(%r10), %r10
	movq	(%rsi), %rsi
	movq	(%rbx), %rbx
	movq	(%rcx), %rcx
	movq	(%rdx), %rdx
	movq	(%rax), %rax
	movq	(%r11), %r11
	movq	(%r14), %r14
	movq	(%r15), %r15
	movq	(%r8), %r8
	movq	(%r9), %r9
	movq	(%r10), %r10
	movq	(%rsi), %rsi
	movq	(%rbx), %rbx
	movq	(%rcx), %rcx
	movq	(%rdx), %rdx
	movq	(%rax), %rax
	movq	(%r11), %r11
	movq	(%r14), %r14
	movq	(%r15), %r15
	movq	(%r8), %r8
	movq	(%r9), %r9
	movq	(%r10), %r10
	movq	(%rsi), %rsi
	movq	(%rbx), %rbx
	movq	(%rcx), %rcx
	movq	(%rdx), %rdx
	movq	(%rax), %rax
	movq	(%r11), %r11
	movq	(%r14), %r14
	movq	(%r15), %r15
	movq	(%r8), %r8
	movq	(%r9), %r9
	movq	(%r10), %r10
	movq	(%rsi), %rsi
	movq	(%rbx), %rbx
	movq	(%rcx), %rcx
	movq	(%rdx), %rdx
	movq	(%rax), %rax
	movq	(%r11), %r11
	movq	(%r14), %r14
	movq	(%r15), %r15
	movq	(%r8), %r8
	movq	(%r9), %r9
	movq	(%r10), %r10
	movq	(%rsi), %rsi
	movq	(%rbx), %rbx
	movq	(%rcx), %rcx
	movq	(%rdx), %rdx
	movq	(%rax), %rax
	movq	(%r11), %r11
	movq	(%r14), %r14
	movq	(%r15), %r15
	movq	(%r8), %r8
	movq	(%r9), %r9
	movq	(%r10), %r10
	movq	(%rsi), %rsi
	movq	(%rbx), %rbx
	movq	(%rcx), %rcx
	movq	(%rdx), %rdx
	movq	(%rax), %rax
	movq	(%r11), %r11
	movq	(%r14), %r14
	movq	(%r15), %r15
	movq	(%r8), %r8
	movq	(%r9), %r9
	movq	(%r10), %r10
	movq	(%rsi), %rsi
	movq	(%rbx), %rbx
	movq	(%rcx), %rcx
	movq	(%rdx), %rdx
	movq	(%rax), %rax
	movq	(%r11), %r11
	movq	(%r14), %r14
	movq	(%r15), %r15
	movq	(%r8), %r8
	movq	(%r9), %r9
	movq	(%r10), %r10
	movq	(%rsi), %rsi
	movq	(%rbx), %rbx
	movq	(%rcx), %rcx
	movq	(%rdx), %rdx
	movq	(%rax), %rax
	movq	(%r11), %r11
	movq	(%r14), %r14
	movq	(%r15), %r15
	movq	(%r8), %r8
	movq	(%r9), %r9
	movq	(%r10), %r10
	movq	(%rsi), %rsi
	movq	(%rbx), %rbx
	movq	(%rcx), %rcx
	movq	(%rdx), %rdx
	movq	(%rax), %rax
	movq	(%r11), %r11
	movq	(%r14), %r14
	movq	(%r15), %r15
	movq	(%r8), %r8
	movq	(%r9), %r9
	movq	(%r10), %r10
	movq	(%rsi), %rsi
	movq	(%rbx), %rbx
	movq	(%rcx), %rcx
	movq	(%rdx), %rdx
	movq	(%rax), %rax
	movq	(%r11), %r11
	movq	(%r14), %r14
	movq	(%r15), %r15
	movq	(%r8), %r8
	movq	(%r9), %r9
	movq	(%r10), %r10
	movq	(%rsi), %rsi
	movq	(%rbx), %rbx
	movq	(%rcx), %rcx
	movq	(%rdx), %rdx
	movq	(%rax), %rax
	movq	(%r11), %r11
	movq	(%r14), %r14
	movq	(%r15), %r15
	movq	(%r8), %r8
	movq	(%r9), %r9
	movq	(%r10), %r10
	movq	(%rsi), %rsi
	movq	(%rbx), %rbx
	movq	(%rcx), %rcx
	movq	(%rdx), %rdx
	movq	(%rax), %rax
	movq	(%r11), %r11
	movq	(%r14), %r14
	movq	(%r15), %r15
	movq	(%r8), %r8
	movq	(%r9), %r9
	movq	(%r10), %r10
	movq	(%rsi), %rsi
	movq	(%rbx), %rbx
	movq	(%rcx), %rcx
	movq	(%rdx), %rdx
	movq	(%rax), %rax
	movq	(%r11), %r11
	movq	(%r14), %r14
	movq	(%r15), %r15
	movq	(%r8), %r8
	movq	(%r9), %r9
	movq	(%r10), %r10
	movq	(%rsi), %rsi
	movq	(%rbx), %rbx
	movq	(%rcx), %rcx
	movq	(%rdx), %rdx
	movq	(%rax), %rax
	movq	(%r11), %r11
	movq	(%r14), %r14
	movq	(%r15), %r15
	movq	(%r8), %r8
	movq	(%r9), %r9
	movq	(%r10), %r10
	movq	(%rsi), %rsi
	movq	(%rbx), %rbx
	movq	(%rcx), %rcx
	movq	(%rdx), %rdx
	movq	(%rax), %rax
	movq	(%r11), %r11
	movq	(%r14), %r14
	movq	(%r15), %r15
	movq	(%r8), %r8
	movq	(%r9), %r9
	movq	(%r10), %r10
	movq	(%rsi), %rsi
	movq	(%rbx), %rbx
	movq	(%rcx), %rcx
	movq	(%rdx), %rdx
	movq	(%rax), %rax
	movq	(%r11), %r11
	movq	(%r14), %r14
	movq	(%r15), %r15
	movq	(%r8), %r8
	movq	(%r9), %r9
	movq	(%r10), %r10
	movq	(%rsi), %rsi
	movq	(%rbx), %rbx
	movq	(%rcx), %rcx
	movq	(%rdx), %rdx
	movq	(%rax), %rax
	movq	(%r11), %r11
	movq	(%r14), %r14
	movq	(%r15), %r15
	movq	(%r8), %r8
	movq	(%r9), %r9
	movq	(%r10), %r10
	movq	(%rsi), %rsi
	movq	(%rbx), %rbx
	movq	(%rcx), %rcx
	movq	(%rdx), %rdx
	movq	(%rax), %rax
	movq	(%r11), %r11
	movq	(%r14), %r14
	movq	(%r15), %r15
	movq	(%r8), %r8
	movq	(%r9), %r9
	movq	(%r10), %r10
	movq	(%rsi), %rsi
	movq	(%rbx), %rbx
	movq	(%rcx), %rcx
	movq	(%rdx), %rdx
	movq	(%rax), %rax
	movq	(%r11), %r11
	movq	(%r14), %r14
	movq	(%r15), %r15
	movq	(%r8), %r8
	movq	(%r9), %r9
	movq	(%r10), %r10
	movq	(%rsi), %rsi
	movq	(%rbx), %rbx
	movq	(%rcx), %rcx
	movq	(%rdx), %rdx
	movq	(%rax), %rax
	movq	(%r11), %r11
	movq	(%r14), %r14
	movq	(%r15), %r15
	movq	(%r8), %r8
	movq	(%r9), %r9
	movq	(%r10), %r10
	movq	(%rsi), %rsi
	movq	(%rbx), %rbx
	movq	(%rcx), %rcx
	movq	(%rdx), %rdx
	movq	(%rax), %rax
	movq	(%r11), %r11
	movq	(%r14), %r14
	movq	(%r15), %r15
	movq	(%r8), %r8
	movq	(%r9), %r9
	movq	(%r10), %r10
	movq	(%rsi), %rsi
	movq	(%rbx), %rbx
	movq	(%rcx), %rcx
	movq	(%rdx), %rdx
	movq	(%rax), %rax
	movq	(%r11), %r11
	movq	(%r14), %r14
	movq	(%r15), %r15
	movq	(%r8), %r8
	movq	(%r9), %r9
	movq	(%r10), %r10
	movq	(%rsi), %rsi
	movq	(%rbx), %rbx
	movq	(%rcx), %rcx
	movq	(%rdx), %rdx
	movq	(%rax), %rax
	movq	(%r11), %r11
	movq	(%r14), %r14
	movq	(%r15), %r15
	movq	(%r8), %r8
	movq	(%r9), %r9
	movq	(%r10), %r10
	movq	(%rsi), %rsi
	movq	(%rbx), %rbx
	movq	(%rcx), %rcx
	movq	(%rdx), %rdx
	movq	(%rax), %rax
	movq	(%r11), %r11
	movq	(%r14), %r14
	movq	(%r15), %r15
	movq	(%r8), %r8
	movq	(%r9), %r9
	movq	(%r10), %r10
	movq	(%rsi), %rsi
	movq	(%rbx), %rbx
	movq	(%rcx), %rcx
	movq	(%rdx), %rdx
	movq	(%rax), %rax
	movq	(%r11), %r11
	movq	(%r14), %r14
	movq	(%r15), %r15
	movq	(%r8), %r8
	movq	(%r9), %r9
	movq	(%r10), %r10
	movq	(%rsi), %rsi
	movq	(%rbx), %rbx
	movq	(%rcx), %rcx
	movq	(%rdx), %rdx
	movq	(%rax), %rax
	movq	(%r11), %r11
	movq	(%r14), %r14
	movq	(%r15), %r15
	movq	(%r8), %r8
	movq	(%r9), %r9
	movq	(%r10), %r10
	movq	(%rsi), %rsi
	movq	(%rbx), %rbx
	movq	(%rcx), %rcx
	movq	(%rdx), %rdx
	movq	(%rax), %rax
	movq	(%r11), %r11
	movq	(%r14), %r14
	movq	(%r15), %r15
	movq	(%r8), %r8
	movq	(%r9), %r9
	movq	(%r10), %r10
	movq	(%rsi), %rsi
	movq	(%rbx), %rbx
	movq	(%rcx), %rcx
	movq	(%rdx), %rdx
	movq	(%rax), %rax
	movq	(%r11), %r11
	movq	(%r14), %r14
	movq	(%r15), %r15
	movq	(%r8), %r8
	movq	(%r9), %r9
	movq	(%r10), %r10
	movq	(%rsi), %rsi
	movq	(%rbx), %rbx
	movq	(%rcx), %rcx
	movq	(%rdx), %rdx
	movq	(%rax), %rax
	movq	(%r11), %r12
	movq	(%r14), %r13
	movq	(%r15), %r11
	movq	(%r8), %r8
	movq	(%r9), %r9
	movq	(%r10), %r10
	movq	(%rsi), %rsi
	movq	(%rbx), %rbx
	movq	(%rcx), %rcx
	movq	(%rdx), %rdx
	movq	(%rax), %r14
	movq	(%r12), %r15
	movq	(%r13), %r12
	movq	(%r11), %r13
	movq	(%r8), %r8
	movq	(%r9), %r9
	movq	(%r10), %r10
	addq	$-1, %rdi
	jne	.LBB10_7
.LBB10_8:
	movq	%rsi, mem_benchmark_10.sp0(%rip)
	movq	%rbx, mem_benchmark_10.sp1(%rip)
	movq	%rcx, mem_benchmark_10.sp2(%rip)
	movq	%rdx, mem_benchmark_10.sp3(%rip)
	movq	%r14, mem_benchmark_10.sp4(%rip)
	movq	%r15, mem_benchmark_10.sp5(%rip)
	movq	%r12, mem_benchmark_10.sp6(%rip)
	movq	%r13, mem_benchmark_10.sp7(%rip)
	movq	%r8, mem_benchmark_10.sp8(%rip)
	movq	%r9, mem_benchmark_10.sp9(%rip)
	movq	%r10, mem_benchmark_10.sp10(%rip)
	movq	-48(%rbp), %rax         # 8-byte Reload
	movq	(%rax), %rax
	movq	%rax, mem_benchmark_10.addr_save(%rip)
	movb	$1, mem_benchmark_rerun(%rip)
	popq	%rbx
	popq	%r12
	popq	%r13
	popq	%r14
	popq	%r15
	popq	%rbp
	.cfi_def_cfa %rsp, 8
	retq
.Lfunc_end10:
	.size	mem_benchmark_10, .Lfunc_end10-mem_benchmark_10
	.cfi_endproc
                                        # -- End function
	.globl	mem_benchmark_11        # -- Begin function mem_benchmark_11
	.p2align	4, 0x90
	.type	mem_benchmark_11,@function
mem_benchmark_11:                       # @mem_benchmark_11
	.cfi_startproc
# %bb.0:
	pushq	%rbp
	.cfi_def_cfa_offset 16
	.cfi_offset %rbp, -16
	movq	%rsp, %rbp
	.cfi_def_cfa_register %rbp
	pushq	%r15
	pushq	%r14
	pushq	%r13
	pushq	%r12
	pushq	%rbx
	.cfi_offset %rbx, -56
	.cfi_offset %r12, -48
	.cfi_offset %r13, -40
	.cfi_offset %r14, -32
	.cfi_offset %r15, -24
	cmpb	$1, mem_benchmark_rerun(%rip)
	movq	%rsi, -56(%rbp)         # 8-byte Spill
	jne	.LBB11_4
# %bb.1:
	movq	mem_benchmark_11.addr_save(%rip), %rbx
	leaq	16(%rsi), %r8
	leaq	24(%rsi), %r9
	leaq	32(%rsi), %r10
	leaq	40(%rsi), %r11
	leaq	48(%rsi), %r14
	leaq	56(%rsi), %r15
	leaq	64(%rsi), %r12
	leaq	72(%rsi), %r13
	leaq	80(%rsi), %rax
	movq	%rax, -64(%rbp)         # 8-byte Spill
	leaq	88(%rsi), %rax
	movq	%rax, -72(%rbp)         # 8-byte Spill
	leaq	96(%rsi), %rax
	movq	%rax, -48(%rbp)         # 8-byte Spill
	cmpq	(%rsi), %rbx
	movl	$mem_benchmark_11.sp0, %ebx
	cmovneq	%r8, %rbx
	movq	(%rbx), %rcx
	movl	$mem_benchmark_11.sp1, %ebx
	cmovneq	%r9, %rbx
	movq	(%rbx), %rsi
	movl	$mem_benchmark_11.sp2, %ebx
	cmovneq	%r10, %rbx
	movq	(%rbx), %rdx
	movl	$mem_benchmark_11.sp3, %ebx
	cmovneq	%r11, %rbx
	movq	(%rbx), %rax
	movl	$mem_benchmark_11.sp4, %ebx
	cmovneq	%r14, %rbx
	movq	(%rbx), %r14
	movl	$mem_benchmark_11.sp5, %ebx
	cmovneq	%r15, %rbx
	movq	(%rbx), %r15
	movl	$mem_benchmark_11.sp6, %ebx
	cmovneq	%r12, %rbx
	movq	(%rbx), %r12
	movl	$mem_benchmark_11.sp7, %ebx
	cmovneq	%r13, %rbx
	movq	(%rbx), %r13
	movl	$mem_benchmark_11.sp8, %ebx
	cmovneq	-64(%rbp), %rbx         # 8-byte Folded Reload
	movq	(%rbx), %r8
	movl	$mem_benchmark_11.sp9, %ebx
	cmovneq	-72(%rbp), %rbx         # 8-byte Folded Reload
	movq	(%rbx), %r9
	movl	$mem_benchmark_11.sp10, %ebx
	cmovneq	-48(%rbp), %rbx         # 8-byte Folded Reload
	movq	(%rbx), %r10
	je	.LBB11_3
# %bb.2:
	movq	%rsi, %r11
	movq	-56(%rbp), %rsi         # 8-byte Reload
	jmp	.LBB11_5
.LBB11_4:
	movq	16(%rsi), %rcx
	movq	24(%rsi), %r11
	movq	32(%rsi), %rdx
	movq	40(%rsi), %rax
	movq	48(%rsi), %r14
	movq	56(%rsi), %r15
	movq	64(%rsi), %r12
	movq	72(%rsi), %r13
	movq	80(%rsi), %r8
	movq	88(%rsi), %r9
	movq	96(%rsi), %r10
.LBB11_5:
	leaq	104(%rsi), %rbx
	movq	%r11, %rsi
	jmp	.LBB11_6
.LBB11_3:
	movl	$mem_benchmark_11.sp11, %ebx
.LBB11_6:
	movq	(%rbx), %r11
	movq	%r14, %rbx
	testq	%rdi, %rdi
	je	.LBB11_8
	.p2align	4, 0x90
.LBB11_7:                               # =>This Inner Loop Header: Depth=1
	movq	%rdi, -48(%rbp)         # 8-byte Spill
	movq	(%rcx), %rcx
	movq	(%rsi), %rsi
	movq	(%rdx), %rdx
	movq	(%rax), %rax
	movq	(%rbx), %rbx
	movq	(%r15), %r14
	movq	(%r12), %r15
	movq	(%r13), %r12
	movq	(%r8), %r8
	movq	(%r9), %r9
	movq	(%r10), %r10
	movq	(%r11), %r11
	movq	(%rcx), %rcx
	movq	(%rsi), %rsi
	movq	(%rdx), %rdx
	movq	(%rax), %rax
	movq	(%rbx), %rbx
	movq	(%r14), %r14
	movq	(%r15), %r15
	movq	(%r12), %r12
	movq	(%r8), %r8
	movq	(%r9), %r9
	movq	(%r10), %r10
	movq	(%r11), %r11
	movq	(%rcx), %rcx
	movq	(%rsi), %rsi
	movq	(%rdx), %rdx
	movq	(%rax), %rax
	movq	(%rbx), %rbx
	movq	(%r14), %r14
	movq	(%r15), %r15
	movq	(%r12), %r12
	movq	(%r8), %r8
	movq	(%r9), %r9
	movq	(%r10), %r10
	movq	(%r11), %r11
	movq	(%rcx), %rcx
	movq	(%rsi), %rsi
	movq	(%rdx), %rdx
	movq	(%rax), %rax
	movq	(%rbx), %rbx
	movq	(%r14), %r14
	movq	(%r15), %r15
	movq	(%r12), %r12
	movq	(%r8), %r8
	movq	(%r9), %r9
	movq	(%r10), %r10
	movq	(%r11), %r11
	movq	(%rcx), %rcx
	movq	(%rsi), %rsi
	movq	(%rdx), %rdx
	movq	(%rax), %rax
	movq	(%rbx), %rbx
	movq	(%r14), %r14
	movq	(%r15), %r15
	movq	(%r12), %r12
	movq	(%r8), %r8
	movq	(%r9), %r9
	movq	(%r10), %r10
	movq	(%r11), %r11
	movq	(%rcx), %rcx
	movq	(%rsi), %rsi
	movq	(%rdx), %rdx
	movq	(%rax), %rax
	movq	(%rbx), %rbx
	movq	(%r14), %r14
	movq	(%r15), %r15
	movq	(%r12), %r12
	movq	(%r8), %r8
	movq	(%r9), %r9
	movq	(%r10), %r10
	movq	(%r11), %r11
	movq	(%rcx), %rcx
	movq	(%rsi), %rsi
	movq	(%rdx), %rdx
	movq	(%rax), %rax
	movq	(%rbx), %rbx
	movq	(%r14), %r14
	movq	(%r15), %r15
	movq	(%r12), %r12
	movq	(%r8), %r8
	movq	(%r9), %r9
	movq	(%r10), %r10
	movq	(%r11), %r11
	movq	(%rcx), %rcx
	movq	(%rsi), %rsi
	movq	(%rdx), %rdx
	movq	(%rax), %rax
	movq	(%rbx), %rbx
	movq	(%r14), %r14
	movq	(%r15), %r15
	movq	(%r12), %r12
	movq	(%r8), %r8
	movq	(%r9), %r9
	movq	(%r10), %r10
	movq	(%r11), %r11
	movq	(%rcx), %rcx
	movq	(%rsi), %rsi
	movq	(%rdx), %rdx
	movq	(%rax), %rax
	movq	(%rbx), %rbx
	movq	(%r14), %r14
	movq	(%r15), %r15
	movq	(%r12), %r12
	movq	(%r8), %r8
	movq	(%r9), %r9
	movq	(%r10), %r10
	movq	(%r11), %r11
	movq	(%rcx), %rcx
	movq	(%rsi), %rsi
	movq	(%rdx), %rdx
	movq	(%rax), %rax
	movq	(%rbx), %rbx
	movq	(%r14), %r14
	movq	(%r15), %r15
	movq	(%r12), %r12
	movq	(%r8), %r8
	movq	(%r9), %r9
	movq	(%r10), %r10
	movq	(%r11), %r11
	movq	(%rcx), %rcx
	movq	(%rsi), %rsi
	movq	(%rdx), %rdx
	movq	(%rax), %rax
	movq	(%rbx), %rbx
	movq	(%r14), %r14
	movq	(%r15), %r15
	movq	(%r12), %r12
	movq	(%r8), %r8
	movq	(%r9), %r9
	movq	(%r10), %r10
	movq	(%r11), %r11
	movq	(%rcx), %rcx
	movq	(%rsi), %rsi
	movq	(%rdx), %rdx
	movq	(%rax), %rax
	movq	(%rbx), %rbx
	movq	(%r14), %r14
	movq	(%r15), %r15
	movq	(%r12), %r12
	movq	(%r8), %r8
	movq	(%r9), %r9
	movq	(%r10), %r10
	movq	(%r11), %r11
	movq	(%rcx), %rcx
	movq	(%rsi), %rsi
	movq	(%rdx), %rdx
	movq	(%rax), %rax
	movq	(%rbx), %rbx
	movq	(%r14), %r14
	movq	(%r15), %r15
	movq	(%r12), %r12
	movq	(%r8), %r8
	movq	(%r9), %r9
	movq	(%r10), %r10
	movq	(%r11), %r11
	movq	(%rcx), %rcx
	movq	(%rsi), %rsi
	movq	(%rdx), %rdx
	movq	(%rax), %rax
	movq	(%rbx), %rbx
	movq	(%r14), %r14
	movq	(%r15), %r15
	movq	(%r12), %r12
	movq	(%r8), %r8
	movq	(%r9), %r9
	movq	(%r10), %r10
	movq	(%r11), %r11
	movq	(%rcx), %rcx
	movq	(%rsi), %rsi
	movq	(%rdx), %rdx
	movq	(%rax), %rax
	movq	(%rbx), %rbx
	movq	(%r14), %r14
	movq	(%r15), %r15
	movq	(%r12), %r12
	movq	(%r8), %r8
	movq	(%r9), %r9
	movq	(%r10), %r10
	movq	(%r11), %r11
	movq	(%rcx), %rcx
	movq	(%rsi), %rsi
	movq	(%rdx), %rdx
	movq	(%rax), %rax
	movq	(%rbx), %rbx
	movq	(%r14), %r14
	movq	(%r15), %r15
	movq	(%r12), %r12
	movq	(%r8), %r8
	movq	(%r9), %r9
	movq	(%r10), %r10
	movq	(%r11), %r11
	movq	(%rcx), %rcx
	movq	(%rsi), %rsi
	movq	(%rdx), %rdx
	movq	(%rax), %rax
	movq	(%rbx), %rbx
	movq	(%r14), %r14
	movq	(%r15), %r15
	movq	(%r12), %r12
	movq	(%r8), %r8
	movq	(%r9), %r9
	movq	(%r10), %r10
	movq	(%r11), %r11
	movq	(%rcx), %rcx
	movq	(%rsi), %rsi
	movq	(%rdx), %rdx
	movq	(%rax), %rax
	movq	(%rbx), %rbx
	movq	(%r14), %r14
	movq	(%r15), %r15
	movq	(%r12), %r12
	movq	(%r8), %r8
	movq	(%r9), %r9
	movq	(%r10), %r10
	movq	(%r11), %r11
	movq	(%rcx), %rcx
	movq	(%rsi), %rsi
	movq	(%rdx), %rdx
	movq	(%rax), %rax
	movq	(%rbx), %rbx
	movq	(%r14), %r14
	movq	(%r15), %r15
	movq	(%r12), %r12
	movq	(%r8), %r8
	movq	(%r9), %r9
	movq	(%r10), %r10
	movq	(%r11), %r11
	movq	(%rcx), %rcx
	movq	(%rsi), %rsi
	movq	(%rdx), %rdx
	movq	(%rax), %rax
	movq	(%rbx), %rbx
	movq	(%r14), %r14
	movq	(%r15), %r15
	movq	(%r12), %r12
	movq	(%r8), %r8
	movq	(%r9), %r9
	movq	(%r10), %r10
	movq	(%r11), %r11
	movq	(%rcx), %rcx
	movq	(%rsi), %rsi
	movq	(%rdx), %rdx
	movq	(%rax), %rax
	movq	(%rbx), %rbx
	movq	(%r14), %r14
	movq	(%r15), %r15
	movq	(%r12), %r12
	movq	(%r8), %r8
	movq	(%r9), %r9
	movq	(%r10), %r10
	movq	(%r11), %r11
	movq	(%rcx), %rcx
	movq	(%rsi), %rsi
	movq	(%rdx), %rdx
	movq	(%rax), %rax
	movq	(%rbx), %rbx
	movq	(%r14), %r14
	movq	(%r15), %r15
	movq	(%r12), %r12
	movq	(%r8), %r8
	movq	(%r9), %r9
	movq	(%r10), %r10
	movq	(%r11), %r11
	movq	(%rcx), %rcx
	movq	(%rsi), %rsi
	movq	(%rdx), %rdx
	movq	(%rax), %rax
	movq	(%rbx), %rbx
	movq	(%r14), %r14
	movq	(%r15), %r15
	movq	(%r12), %r12
	movq	(%r8), %r8
	movq	(%r9), %r9
	movq	(%r10), %r10
	movq	(%r11), %r11
	movq	(%rcx), %rcx
	movq	(%rsi), %rsi
	movq	(%rdx), %rdx
	movq	(%rax), %rax
	movq	(%rbx), %rbx
	movq	(%r14), %r14
	movq	(%r15), %r15
	movq	(%r12), %r12
	movq	(%r8), %r8
	movq	(%r9), %r9
	movq	(%r10), %r10
	movq	(%r11), %r11
	movq	(%rcx), %rcx
	movq	(%rsi), %rsi
	movq	(%rdx), %rdx
	movq	(%rax), %rax
	movq	(%rbx), %rbx
	movq	(%r14), %r14
	movq	(%r15), %r15
	movq	(%r12), %r12
	movq	(%r8), %r8
	movq	(%r9), %r9
	movq	(%r10), %r10
	movq	(%r11), %r11
	movq	(%rcx), %rcx
	movq	(%rsi), %rsi
	movq	(%rdx), %rdx
	movq	(%rax), %rax
	movq	(%rbx), %rbx
	movq	(%r14), %r14
	movq	(%r15), %r15
	movq	(%r12), %r12
	movq	(%r8), %r8
	movq	(%r9), %r9
	movq	(%r10), %r10
	movq	(%r11), %r11
	movq	(%rcx), %rcx
	movq	(%rsi), %rsi
	movq	(%rdx), %rdx
	movq	(%rax), %rax
	movq	(%rbx), %rbx
	movq	(%r14), %r14
	movq	(%r15), %r15
	movq	(%r12), %r12
	movq	(%r8), %r8
	movq	(%r9), %r9
	movq	(%r10), %r10
	movq	(%r11), %r11
	movq	(%rcx), %rcx
	movq	(%rsi), %rsi
	movq	(%rdx), %rdx
	movq	(%rax), %rax
	movq	(%rbx), %rbx
	movq	(%r14), %r14
	movq	(%r15), %r15
	movq	(%r12), %r12
	movq	(%r8), %r8
	movq	(%r9), %r9
	movq	(%r10), %r10
	movq	(%r11), %r11
	movq	(%rcx), %rcx
	movq	(%rsi), %rsi
	movq	(%rdx), %rdx
	movq	(%rax), %rax
	movq	(%rbx), %rbx
	movq	(%r14), %r14
	movq	(%r15), %r15
	movq	(%r12), %r12
	movq	(%r8), %r8
	movq	(%r9), %r9
	movq	(%r10), %r10
	movq	(%r11), %r11
	movq	(%rcx), %rcx
	movq	(%rsi), %rsi
	movq	(%rdx), %rdx
	movq	(%rax), %rax
	movq	(%rbx), %rbx
	movq	(%r14), %r14
	movq	(%r15), %r15
	movq	(%r12), %r12
	movq	(%r8), %r8
	movq	(%r9), %r9
	movq	(%r10), %r10
	movq	(%r11), %r11
	movq	(%rcx), %rcx
	movq	(%rsi), %rsi
	movq	(%rdx), %rdx
	movq	(%rax), %rax
	movq	(%rbx), %rbx
	movq	(%r14), %r14
	movq	(%r15), %r15
	movq	(%r12), %r12
	movq	(%r8), %r8
	movq	(%r9), %r9
	movq	(%r10), %r10
	movq	(%r11), %r11
	movq	(%rcx), %rcx
	movq	(%rsi), %rsi
	movq	(%rdx), %rdx
	movq	(%rax), %rax
	movq	(%rbx), %rbx
	movq	(%r14), %r14
	movq	(%r15), %r15
	movq	(%r12), %r12
	movq	(%r8), %r8
	movq	(%r9), %r9
	movq	(%r10), %r10
	movq	(%r11), %r11
	movq	(%rcx), %rcx
	movq	(%rsi), %rsi
	movq	(%rdx), %rdx
	movq	(%rax), %rax
	movq	(%rbx), %rbx
	movq	(%r14), %r14
	movq	(%r15), %r15
	movq	(%r12), %r12
	movq	(%r8), %r8
	movq	(%r9), %r9
	movq	(%r10), %r10
	movq	(%r11), %r11
	movq	(%rcx), %rcx
	movq	(%rsi), %rsi
	movq	(%rdx), %rdx
	movq	(%rax), %rax
	movq	(%rbx), %rbx
	movq	(%r14), %r14
	movq	(%r15), %r15
	movq	(%r12), %r12
	movq	(%r8), %r8
	movq	(%r9), %r9
	movq	(%r10), %r10
	movq	(%r11), %r11
	movq	(%rcx), %rcx
	movq	(%rsi), %rsi
	movq	(%rdx), %rdx
	movq	(%rax), %rax
	movq	(%rbx), %rbx
	movq	(%r14), %r14
	movq	(%r15), %r15
	movq	(%r12), %r12
	movq	(%r8), %r8
	movq	(%r9), %r9
	movq	(%r10), %r10
	movq	(%r11), %r11
	movq	(%rcx), %rcx
	movq	(%rsi), %rsi
	movq	(%rdx), %rdx
	movq	(%rax), %rax
	movq	(%rbx), %rbx
	movq	(%r14), %r14
	movq	(%r15), %r15
	movq	(%r12), %r12
	movq	(%r8), %r8
	movq	(%r9), %r9
	movq	(%r10), %r10
	movq	(%r11), %r11
	movq	(%rcx), %rcx
	movq	(%rsi), %rsi
	movq	(%rdx), %rdx
	movq	(%rax), %rax
	movq	(%rbx), %rbx
	movq	(%r14), %r14
	movq	(%r15), %r15
	movq	(%r12), %r12
	movq	(%r8), %r8
	movq	(%r9), %r9
	movq	(%r10), %r10
	movq	(%r11), %r11
	movq	(%rcx), %rcx
	movq	(%rsi), %rsi
	movq	(%rdx), %rdx
	movq	(%rax), %rax
	movq	(%rbx), %rbx
	movq	(%r14), %r14
	movq	(%r15), %r15
	movq	(%r12), %r12
	movq	(%r8), %r8
	movq	(%r9), %r9
	movq	(%r10), %r10
	movq	(%r11), %r11
	movq	(%rcx), %rcx
	movq	(%rsi), %rsi
	movq	(%rdx), %rdx
	movq	(%rax), %rax
	movq	(%rbx), %rbx
	movq	(%r14), %r14
	movq	(%r15), %r15
	movq	(%r12), %r12
	movq	(%r8), %r8
	movq	(%r9), %r9
	movq	(%r10), %r10
	movq	(%r11), %r11
	movq	(%rcx), %rcx
	movq	(%rsi), %rsi
	movq	(%rdx), %rdx
	movq	(%rax), %rax
	movq	(%rbx), %rbx
	movq	(%r14), %r14
	movq	(%r15), %r15
	movq	(%r12), %r12
	movq	(%r8), %r8
	movq	(%r9), %r9
	movq	(%r10), %r10
	movq	(%r11), %r11
	movq	(%rcx), %rcx
	movq	(%rsi), %rsi
	movq	(%rdx), %rdx
	movq	(%rax), %rax
	movq	(%rbx), %rbx
	movq	(%r14), %r14
	movq	(%r15), %r15
	movq	(%r12), %r12
	movq	(%r8), %r8
	movq	(%r9), %r9
	movq	(%r10), %r10
	movq	(%r11), %r11
	movq	(%rcx), %rcx
	movq	(%rsi), %rsi
	movq	(%rdx), %rdx
	movq	(%rax), %rax
	movq	(%rbx), %rbx
	movq	(%r14), %r14
	movq	(%r15), %r15
	movq	(%r12), %r12
	movq	(%r8), %r8
	movq	(%r9), %r9
	movq	(%r10), %r10
	movq	(%r11), %r11
	movq	(%rcx), %rcx
	movq	(%rsi), %rsi
	movq	(%rdx), %rdx
	movq	(%rax), %rax
	movq	(%rbx), %rbx
	movq	(%r14), %r14
	movq	(%r15), %r15
	movq	(%r12), %r12
	movq	(%r8), %r8
	movq	(%r9), %r9
	movq	(%r10), %r10
	movq	(%r11), %r11
	movq	(%rcx), %rcx
	movq	(%rsi), %rsi
	movq	(%rdx), %rdx
	movq	(%rax), %rax
	movq	(%rbx), %rbx
	movq	(%r14), %r14
	movq	(%r15), %r15
	movq	(%r12), %r12
	movq	(%r8), %r8
	movq	(%r9), %r9
	movq	(%r10), %r10
	movq	(%r11), %r11
	movq	(%rcx), %rcx
	movq	(%rsi), %rsi
	movq	(%rdx), %rdx
	movq	(%rax), %rax
	movq	(%rbx), %rbx
	movq	(%r14), %r14
	movq	(%r15), %r15
	movq	(%r12), %r12
	movq	(%r8), %r8
	movq	(%r9), %r9
	movq	(%r10), %r10
	movq	(%r11), %r11
	movq	(%rcx), %rcx
	movq	(%rsi), %rsi
	movq	(%rdx), %rdx
	movq	(%rax), %rax
	movq	(%rbx), %rbx
	movq	(%r14), %r14
	movq	(%r15), %r15
	movq	(%r12), %r12
	movq	(%r8), %r8
	movq	(%r9), %r9
	movq	(%r10), %r10
	movq	(%r11), %r11
	movq	(%rcx), %rcx
	movq	(%rsi), %rsi
	movq	(%rdx), %rdx
	movq	(%rax), %rax
	movq	(%rbx), %rbx
	movq	(%r14), %r14
	movq	(%r15), %r15
	movq	(%r12), %r12
	movq	(%r8), %r8
	movq	(%r9), %r9
	movq	(%r10), %r10
	movq	(%r11), %r11
	movq	(%rcx), %rcx
	movq	(%rsi), %rsi
	movq	(%rdx), %rdx
	movq	(%rax), %rax
	movq	(%rbx), %rbx
	movq	(%r14), %r14
	movq	(%r15), %r15
	movq	(%r12), %r12
	movq	(%r8), %r8
	movq	(%r9), %r9
	movq	(%r10), %r10
	movq	(%r11), %r11
	movq	(%rcx), %rcx
	movq	(%rsi), %rsi
	movq	(%rdx), %rdx
	movq	(%rax), %rax
	movq	(%rbx), %rbx
	movq	(%r14), %r14
	movq	(%r15), %r15
	movq	(%r12), %r12
	movq	(%r8), %r8
	movq	(%r9), %r9
	movq	(%r10), %r10
	movq	(%r11), %r11
	movq	(%rcx), %rcx
	movq	(%rsi), %rsi
	movq	(%rdx), %rdx
	movq	(%rax), %rax
	movq	(%rbx), %rbx
	movq	(%r14), %r14
	movq	(%r15), %r15
	movq	(%r12), %r12
	movq	(%r8), %r8
	movq	(%r9), %r9
	movq	(%r10), %r10
	movq	(%r11), %r11
	movq	(%rcx), %rcx
	movq	(%rsi), %rsi
	movq	(%rdx), %rdx
	movq	(%rax), %rax
	movq	(%rbx), %rbx
	movq	(%r14), %r14
	movq	(%r15), %r15
	movq	(%r12), %r12
	movq	(%r8), %r8
	movq	(%r9), %r9
	movq	(%r10), %r10
	movq	(%r11), %r11
	movq	(%rcx), %rcx
	movq	(%rsi), %rsi
	movq	(%rdx), %rdx
	movq	(%rax), %rax
	movq	(%rbx), %rbx
	movq	(%r14), %r14
	movq	(%r15), %r15
	movq	(%r12), %r12
	movq	(%r8), %r8
	movq	(%r9), %r9
	movq	(%r10), %r10
	movq	(%r11), %r11
	movq	(%rcx), %rcx
	movq	(%rsi), %rsi
	movq	(%rdx), %rdx
	movq	(%rax), %rax
	movq	(%rbx), %rbx
	movq	(%r14), %r14
	movq	(%r15), %r15
	movq	(%r12), %r12
	movq	(%r8), %r8
	movq	(%r9), %r9
	movq	(%r10), %r10
	movq	(%r11), %r11
	movq	(%rcx), %rcx
	movq	(%rsi), %rsi
	movq	(%rdx), %rdx
	movq	(%rax), %rax
	movq	(%rbx), %rbx
	movq	(%r14), %r14
	movq	(%r15), %r15
	movq	(%r12), %r12
	movq	(%r8), %r8
	movq	(%r9), %r9
	movq	(%r10), %r10
	movq	(%r11), %r11
	movq	(%rcx), %rcx
	movq	(%rsi), %rsi
	movq	(%rdx), %rdx
	movq	(%rax), %rax
	movq	(%rbx), %rbx
	movq	(%r14), %r14
	movq	(%r15), %r15
	movq	(%r12), %r12
	movq	(%r8), %r8
	movq	(%r9), %r9
	movq	(%r10), %r10
	movq	(%r11), %r11
	movq	(%rcx), %rcx
	movq	(%rsi), %rsi
	movq	(%rdx), %rdx
	movq	(%rax), %rax
	movq	(%rbx), %rbx
	movq	(%r14), %r14
	movq	(%r15), %r15
	movq	(%r12), %r12
	movq	(%r8), %r8
	movq	(%r9), %r9
	movq	(%r10), %r10
	movq	(%r11), %r11
	movq	(%rcx), %rcx
	movq	(%rsi), %rsi
	movq	(%rdx), %rdx
	movq	(%rax), %rax
	movq	(%rbx), %rbx
	movq	(%r14), %r14
	movq	(%r15), %r15
	movq	(%r12), %r12
	movq	(%r8), %r8
	movq	(%r9), %r9
	movq	(%r10), %r10
	movq	(%r11), %r11
	movq	(%rcx), %rcx
	movq	(%rsi), %rsi
	movq	(%rdx), %rdx
	movq	(%rax), %rax
	movq	(%rbx), %rbx
	movq	(%r14), %r14
	movq	(%r15), %r15
	movq	(%r12), %r12
	movq	(%r8), %r8
	movq	(%r9), %r9
	movq	(%r10), %r10
	movq	(%r11), %r11
	movq	(%rcx), %rcx
	movq	(%rsi), %rsi
	movq	(%rdx), %rdx
	movq	(%rax), %rax
	movq	(%rbx), %rbx
	movq	(%r14), %r14
	movq	(%r15), %r15
	movq	(%r12), %r12
	movq	(%r8), %r8
	movq	(%r9), %r9
	movq	(%r10), %r10
	movq	(%r11), %r11
	movq	(%rcx), %rcx
	movq	(%rsi), %rsi
	movq	(%rdx), %rdx
	movq	(%rax), %rax
	movq	(%rbx), %rbx
	movq	(%r14), %r14
	movq	(%r15), %r15
	movq	(%r12), %r12
	movq	(%r8), %r8
	movq	(%r9), %r9
	movq	(%r10), %r10
	movq	(%r11), %r11
	movq	(%rcx), %rcx
	movq	(%rsi), %rsi
	movq	(%rdx), %rdx
	movq	(%rax), %rax
	movq	(%rbx), %rbx
	movq	(%r14), %r14
	movq	(%r15), %r15
	movq	(%r12), %r12
	movq	(%r8), %r8
	movq	(%r9), %r9
	movq	(%r10), %r10
	movq	(%r11), %r11
	movq	(%rcx), %rcx
	movq	(%rsi), %rsi
	movq	(%rdx), %rdx
	movq	(%rax), %rax
	movq	(%rbx), %rbx
	movq	(%r14), %r14
	movq	(%r15), %r15
	movq	(%r12), %r12
	movq	(%r8), %r8
	movq	(%r9), %r9
	movq	(%r10), %r10
	movq	(%r11), %r11
	movq	(%rcx), %rcx
	movq	(%rsi), %rsi
	movq	(%rdx), %rdx
	movq	(%rax), %rax
	movq	(%rbx), %rbx
	movq	(%r14), %r14
	movq	(%r15), %r15
	movq	(%r12), %r12
	movq	(%r8), %r8
	movq	(%r9), %r9
	movq	(%r10), %r10
	movq	(%r11), %r11
	movq	(%rcx), %rcx
	movq	(%rsi), %rsi
	movq	(%rdx), %rdx
	movq	(%rax), %rax
	movq	(%rbx), %rbx
	movq	(%r14), %r14
	movq	(%r15), %r15
	movq	(%r12), %r12
	movq	(%r8), %r8
	movq	(%r9), %r9
	movq	(%r10), %r10
	movq	(%r11), %r11
	movq	(%rcx), %rcx
	movq	(%rsi), %rsi
	movq	(%rdx), %rdx
	movq	(%rax), %rax
	movq	(%rbx), %rbx
	movq	(%r14), %r14
	movq	(%r15), %r15
	movq	(%r12), %r12
	movq	(%r8), %r8
	movq	(%r9), %r9
	movq	(%r10), %r10
	movq	(%r11), %r11
	movq	(%rcx), %rcx
	movq	(%rsi), %rsi
	movq	(%rdx), %rdx
	movq	(%rax), %rax
	movq	(%rbx), %rbx
	movq	(%r14), %r14
	movq	(%r15), %r15
	movq	(%r12), %r12
	movq	(%r8), %r8
	movq	(%r9), %r9
	movq	(%r10), %r10
	movq	(%r11), %r11
	movq	(%rcx), %rcx
	movq	(%rsi), %rsi
	movq	(%rdx), %rdx
	movq	(%rax), %rax
	movq	(%rbx), %rbx
	movq	(%r14), %r14
	movq	(%r15), %r15
	movq	(%r12), %r12
	movq	(%r8), %r8
	movq	(%r9), %r9
	movq	(%r10), %r10
	movq	(%r11), %r11
	movq	(%rcx), %rcx
	movq	(%rsi), %rsi
	movq	(%rdx), %rdx
	movq	(%rax), %rax
	movq	(%rbx), %rbx
	movq	(%r14), %r14
	movq	(%r15), %r15
	movq	(%r12), %r12
	movq	(%r8), %r8
	movq	(%r9), %r9
	movq	(%r10), %r10
	movq	(%r11), %r11
	movq	(%rcx), %rcx
	movq	(%rsi), %rsi
	movq	(%rdx), %rdx
	movq	(%rax), %rax
	movq	(%rbx), %rbx
	movq	(%r14), %r14
	movq	(%r15), %r15
	movq	(%r12), %r12
	movq	(%r8), %r8
	movq	(%r9), %r9
	movq	(%r10), %r10
	movq	(%r11), %r11
	movq	(%rcx), %rcx
	movq	(%rsi), %rsi
	movq	(%rdx), %rdx
	movq	(%rax), %rax
	movq	(%rbx), %rbx
	movq	(%r14), %r14
	movq	(%r15), %r15
	movq	(%r12), %r12
	movq	(%r8), %r8
	movq	(%r9), %r9
	movq	(%r10), %r10
	movq	(%r11), %r11
	movq	(%rcx), %rcx
	movq	(%rsi), %rsi
	movq	(%rdx), %rdx
	movq	(%rax), %rax
	movq	(%rbx), %rbx
	movq	(%r14), %r14
	movq	(%r15), %r15
	movq	(%r12), %r12
	movq	(%r8), %r8
	movq	(%r9), %r9
	movq	(%r10), %r10
	movq	(%r11), %r11
	movq	(%rcx), %rcx
	movq	(%rsi), %rsi
	movq	(%rdx), %rdx
	movq	(%rax), %rax
	movq	(%rbx), %rbx
	movq	(%r14), %r14
	movq	(%r15), %r15
	movq	(%r12), %r12
	movq	(%r8), %r8
	movq	(%r9), %r9
	movq	(%r10), %r10
	movq	(%r11), %r11
	movq	(%rcx), %rcx
	movq	(%rsi), %rsi
	movq	(%rdx), %rdx
	movq	(%rax), %rax
	movq	(%rbx), %rbx
	movq	(%r14), %r14
	movq	(%r15), %r15
	movq	(%r12), %r12
	movq	(%r8), %r8
	movq	(%r9), %r9
	movq	(%r10), %r10
	movq	(%r11), %r11
	movq	(%rcx), %rcx
	movq	(%rsi), %rsi
	movq	(%rdx), %rdx
	movq	(%rax), %rax
	movq	(%rbx), %rbx
	movq	(%r14), %r14
	movq	(%r15), %r15
	movq	(%r12), %r12
	movq	(%r8), %r8
	movq	(%r9), %r9
	movq	(%r10), %r10
	movq	(%r11), %r11
	movq	(%rcx), %rcx
	movq	(%rsi), %rsi
	movq	(%rdx), %rdx
	movq	(%rax), %rax
	movq	(%rbx), %rbx
	movq	(%r14), %r14
	movq	(%r15), %r15
	movq	(%r12), %r12
	movq	(%r8), %r8
	movq	(%r9), %r9
	movq	(%r10), %r10
	movq	(%r11), %r11
	movq	(%rcx), %rcx
	movq	(%rsi), %rsi
	movq	(%rdx), %rdx
	movq	(%rax), %rax
	movq	(%rbx), %rbx
	movq	(%r14), %r14
	movq	(%r15), %r15
	movq	(%r12), %r12
	movq	(%r8), %r8
	movq	(%r9), %r9
	movq	(%r10), %r10
	movq	(%r11), %r11
	movq	(%rcx), %rcx
	movq	(%rsi), %rsi
	movq	(%rdx), %rdx
	movq	(%rax), %rax
	movq	(%rbx), %rbx
	movq	(%r14), %r14
	movq	(%r15), %r15
	movq	(%r12), %r12
	movq	(%r8), %r8
	movq	(%r9), %r9
	movq	(%r10), %r10
	movq	(%r11), %r11
	movq	(%rcx), %rcx
	movq	(%rsi), %rsi
	movq	(%rdx), %rdx
	movq	(%rax), %rax
	movq	(%rbx), %rbx
	movq	(%r14), %r14
	movq	(%r15), %r15
	movq	(%r12), %r12
	movq	(%r8), %r8
	movq	(%r9), %r9
	movq	(%r10), %r10
	movq	(%r11), %r11
	movq	(%rcx), %rcx
	movq	(%rsi), %rsi
	movq	(%rdx), %rdx
	movq	(%rax), %rax
	movq	(%rbx), %rbx
	movq	(%r14), %r14
	movq	(%r15), %r15
	movq	(%r12), %r12
	movq	(%r8), %r8
	movq	(%r9), %r9
	movq	(%r10), %r10
	movq	(%r11), %r11
	movq	(%rcx), %rcx
	movq	(%rsi), %rsi
	movq	(%rdx), %rdx
	movq	(%rax), %rax
	movq	(%rbx), %rbx
	movq	(%r14), %r14
	movq	(%r15), %r15
	movq	(%r12), %r12
	movq	(%r8), %r8
	movq	(%r9), %r9
	movq	(%r10), %r10
	movq	(%r11), %r11
	movq	(%rcx), %rcx
	movq	(%rsi), %rsi
	movq	(%rdx), %rdx
	movq	(%rax), %rax
	movq	(%rbx), %rbx
	movq	(%r14), %r14
	movq	(%r15), %r15
	movq	(%r12), %r12
	movq	(%r8), %r8
	movq	(%r9), %r9
	movq	(%r10), %r10
	movq	(%r11), %r11
	movq	(%rcx), %rcx
	movq	(%rsi), %rsi
	movq	(%rdx), %rdx
	movq	(%rax), %rax
	movq	(%rbx), %rbx
	movq	(%r14), %r14
	movq	(%r15), %r15
	movq	(%r12), %r12
	movq	(%r8), %r8
	movq	(%r9), %r9
	movq	(%r10), %r10
	movq	(%r11), %r11
	movq	(%rcx), %rcx
	movq	(%rsi), %rsi
	movq	(%rdx), %rdx
	movq	(%rax), %rax
	movq	(%rbx), %rbx
	movq	(%r14), %r14
	movq	(%r15), %r15
	movq	(%r12), %r12
	movq	(%r8), %r8
	movq	(%r9), %r9
	movq	(%r10), %r10
	movq	(%r11), %r11
	movq	(%rcx), %rcx
	movq	(%rsi), %rsi
	movq	(%rdx), %rdx
	movq	(%rax), %rax
	movq	(%rbx), %rbx
	movq	(%r14), %r14
	movq	(%r15), %r15
	movq	(%r12), %r12
	movq	(%r8), %r8
	movq	(%r9), %r9
	movq	(%r10), %r10
	movq	(%r11), %r11
	movq	(%rcx), %rcx
	movq	(%rsi), %rsi
	movq	(%rdx), %rdx
	movq	(%rax), %rax
	movq	(%rbx), %rbx
	movq	(%r14), %r14
	movq	(%r15), %r15
	movq	(%r12), %r12
	movq	(%r8), %r8
	movq	(%r9), %r9
	movq	(%r10), %r10
	movq	(%r11), %r11
	movq	(%rcx), %rcx
	movq	(%rsi), %rsi
	movq	(%rdx), %rdx
	movq	(%rax), %rax
	movq	(%rbx), %rbx
	movq	(%r14), %r14
	movq	(%r15), %r15
	movq	(%r12), %r12
	movq	(%r8), %r8
	movq	(%r9), %r9
	movq	(%r10), %r10
	movq	(%r11), %r11
	movq	(%rcx), %rcx
	movq	(%rsi), %rsi
	movq	(%rdx), %rdx
	movq	(%rax), %rax
	movq	(%rbx), %rbx
	movq	(%r14), %r14
	movq	(%r15), %r15
	movq	(%r12), %r12
	movq	(%r8), %r8
	movq	(%r9), %r9
	movq	(%r10), %r10
	movq	(%r11), %r11
	movq	(%rcx), %rcx
	movq	(%rsi), %rsi
	movq	(%rdx), %rdx
	movq	(%rax), %rax
	movq	(%rbx), %rbx
	movq	(%r14), %r14
	movq	(%r15), %r15
	movq	(%r12), %r12
	movq	(%r8), %r8
	movq	(%r9), %r9
	movq	(%r10), %r10
	movq	(%r11), %r11
	movq	(%rcx), %rcx
	movq	(%rsi), %rsi
	movq	(%rdx), %rdx
	movq	(%rax), %rax
	movq	(%rbx), %rbx
	movq	(%r14), %r14
	movq	(%r15), %r15
	movq	(%r12), %r12
	movq	(%r8), %r8
	movq	(%r9), %r9
	movq	(%r10), %r10
	movq	(%r11), %r11
	movq	(%rcx), %rcx
	movq	(%rsi), %rsi
	movq	(%rdx), %rdx
	movq	(%rax), %rax
	movq	(%rbx), %rbx
	movq	(%r14), %r14
	movq	(%r15), %r15
	movq	(%r12), %r12
	movq	(%r8), %r8
	movq	(%r9), %r9
	movq	(%r10), %r10
	movq	(%r11), %r11
	movq	(%rcx), %rcx
	movq	(%rsi), %rsi
	movq	(%rdx), %rdx
	movq	(%rax), %rax
	movq	(%rbx), %rbx
	movq	(%r14), %r14
	movq	(%r15), %r15
	movq	(%r12), %r12
	movq	(%r8), %r8
	movq	(%r9), %r9
	movq	(%r10), %r10
	movq	(%r11), %r11
	movq	(%rcx), %rcx
	movq	(%rsi), %rsi
	movq	(%rdx), %rdx
	movq	(%rax), %rax
	movq	(%rbx), %rbx
	movq	(%r14), %r14
	movq	(%r15), %r15
	movq	(%r12), %r12
	movq	(%r8), %r8
	movq	(%r9), %r9
	movq	(%r10), %r10
	movq	(%r11), %r11
	movq	(%rcx), %rcx
	movq	(%rsi), %rsi
	movq	(%rdx), %rdx
	movq	(%rax), %rax
	movq	(%rbx), %rbx
	movq	(%r14), %r14
	movq	(%r15), %r15
	movq	(%r12), %r12
	movq	(%r8), %r8
	movq	(%r9), %r9
	movq	(%r10), %r10
	movq	(%r11), %r11
	movq	(%rcx), %rcx
	movq	(%rsi), %rsi
	movq	(%rdx), %rdx
	movq	(%rax), %rax
	movq	(%rbx), %rbx
	movq	(%r14), %r14
	movq	(%r15), %r15
	movq	(%r12), %r12
	movq	(%r8), %r8
	movq	(%r9), %r9
	movq	(%r10), %r10
	movq	(%r11), %r11
	movq	(%rcx), %rcx
	movq	(%rsi), %rsi
	movq	(%rdx), %rdx
	movq	(%rax), %rax
	movq	(%rbx), %rbx
	movq	(%r14), %r14
	movq	(%r15), %r15
	movq	(%r12), %r12
	movq	(%r8), %r8
	movq	(%r9), %r9
	movq	(%r10), %r10
	movq	(%r11), %r11
	movq	(%rcx), %rcx
	movq	(%rsi), %rsi
	movq	(%rdx), %rdx
	movq	(%rax), %rax
	movq	(%rbx), %rbx
	movq	(%r14), %r14
	movq	(%r15), %r15
	movq	(%r12), %r12
	movq	(%r8), %r8
	movq	(%r9), %r9
	movq	(%r10), %r10
	movq	(%r11), %r11
	movq	(%rcx), %rcx
	movq	(%rsi), %rsi
	movq	(%rdx), %rdx
	movq	(%rax), %rax
	movq	(%rbx), %rbx
	movq	(%r14), %r14
	movq	(%r15), %r15
	movq	(%r12), %r12
	movq	(%r8), %r8
	movq	(%r9), %r9
	movq	(%r10), %r10
	movq	(%r11), %r11
	movq	(%rcx), %rcx
	movq	(%rsi), %rsi
	movq	(%rdx), %rdx
	movq	(%rax), %rax
	movq	(%rbx), %rbx
	movq	(%r14), %r14
	movq	(%r15), %r15
	movq	(%r12), %r12
	movq	(%r8), %r8
	movq	(%r9), %r9
	movq	(%r10), %r10
	movq	(%r11), %r11
	movq	(%rcx), %rcx
	movq	(%rsi), %rsi
	movq	(%rdx), %rdx
	movq	(%rax), %rax
	movq	(%rbx), %rbx
	movq	(%r14), %r13
	movq	(%r15), %r14
	movq	(%r12), %rdi
	movq	(%r8), %r8
	movq	(%r9), %r9
	movq	(%r10), %r10
	movq	(%r11), %r11
	movq	(%rcx), %rcx
	movq	(%rsi), %rsi
	movq	(%rdx), %rdx
	movq	(%rax), %rax
	movq	(%rbx), %rbx
	movq	(%r13), %r15
	movq	(%r14), %r12
	movq	(%rdi), %r13
	movq	-48(%rbp), %rdi         # 8-byte Reload
	movq	(%r8), %r8
	movq	(%r9), %r9
	movq	(%r10), %r10
	movq	(%r11), %r11
	addq	$-1, %rdi
	jne	.LBB11_7
.LBB11_8:
	movq	%rcx, mem_benchmark_11.sp0(%rip)
	movq	%rsi, mem_benchmark_11.sp1(%rip)
	movq	%rdx, mem_benchmark_11.sp2(%rip)
	movq	%rax, mem_benchmark_11.sp3(%rip)
	movq	%rbx, mem_benchmark_11.sp4(%rip)
	movq	%r15, mem_benchmark_11.sp5(%rip)
	movq	%r12, mem_benchmark_11.sp6(%rip)
	movq	%r13, mem_benchmark_11.sp7(%rip)
	movq	%r8, mem_benchmark_11.sp8(%rip)
	movq	%r9, mem_benchmark_11.sp9(%rip)
	movq	%r10, mem_benchmark_11.sp10(%rip)
	movq	%r11, mem_benchmark_11.sp11(%rip)
	movq	-56(%rbp), %rax         # 8-byte Reload
	movq	(%rax), %rax
	movq	%rax, mem_benchmark_11.addr_save(%rip)
	movb	$1, mem_benchmark_rerun(%rip)
	popq	%rbx
	popq	%r12
	popq	%r13
	popq	%r14
	popq	%r15
	popq	%rbp
	.cfi_def_cfa %rsp, 8
	retq
.Lfunc_end11:
	.size	mem_benchmark_11, .Lfunc_end11-mem_benchmark_11
	.cfi_endproc
                                        # -- End function
	.globl	mem_benchmark_12        # -- Begin function mem_benchmark_12
	.p2align	4, 0x90
	.type	mem_benchmark_12,@function
mem_benchmark_12:                       # @mem_benchmark_12
	.cfi_startproc
# %bb.0:
	pushq	%rbp
	.cfi_def_cfa_offset 16
	.cfi_offset %rbp, -16
	movq	%rsp, %rbp
	.cfi_def_cfa_register %rbp
	pushq	%r15
	pushq	%r14
	pushq	%r13
	pushq	%r12
	pushq	%rbx
	.cfi_offset %rbx, -56
	.cfi_offset %r12, -48
	.cfi_offset %r13, -40
	.cfi_offset %r14, -32
	.cfi_offset %r15, -24
	movq	%rsi, %r8
	cmpb	$1, mem_benchmark_rerun(%rip)
	movq	%rsi, -48(%rbp)         # 8-byte Spill
	jne	.LBB12_4
# %bb.1:
	movq	mem_benchmark_12.addr_save(%rip), %rcx
	leaq	16(%r8), %rdx
	movl	$mem_benchmark_12.sp0, %ebx
	cmpq	(%r8), %rcx
	cmovneq	%rdx, %rbx
	leaq	24(%r8), %rdx
	movl	$mem_benchmark_12.sp1, %ecx
	cmovneq	%rdx, %rcx
	leaq	32(%r8), %rsi
	movl	$mem_benchmark_12.sp2, %edx
	cmovneq	%rsi, %rdx
	leaq	40(%r8), %rsi
	movl	$mem_benchmark_12.sp3, %eax
	cmovneq	%rsi, %rax
	leaq	48(%r8), %rsi
	movl	$mem_benchmark_12.sp4, %r15d
	cmovneq	%rsi, %r15
	leaq	56(%r8), %rsi
	movl	$mem_benchmark_12.sp5, %r12d
	cmovneq	%rsi, %r12
	leaq	64(%r8), %rsi
	movl	$mem_benchmark_12.sp6, %r13d
	cmovneq	%rsi, %r13
	leaq	72(%r8), %rsi
	movl	$mem_benchmark_12.sp7, %r9d
	cmovneq	%rsi, %r9
	leaq	80(%r8), %rsi
	movl	$mem_benchmark_12.sp8, %r10d
	cmovneq	%rsi, %r10
	leaq	88(%r8), %rsi
	movl	$mem_benchmark_12.sp9, %r11d
	cmovneq	%rsi, %r11
	leaq	96(%r8), %rsi
	movl	$mem_benchmark_12.sp10, %r14d
	cmovneq	%rsi, %r14
	leaq	104(%r8), %rsi
	movl	$mem_benchmark_12.sp11, %r8d
	cmovneq	%rsi, %r8
	movq	(%rbx), %rsi
	movq	(%rcx), %rcx
	movq	(%rdx), %rdx
	movq	(%rax), %rax
	movq	(%r15), %rbx
	movq	(%r12), %r15
	movq	(%r13), %r12
	movq	(%r9), %r13
	movq	(%r10), %r9
	movq	(%r11), %r10
	movq	(%r14), %r11
	movq	(%r8), %r14
	je	.LBB12_3
# %bb.2:
	movq	-48(%rbp), %r8          # 8-byte Reload
	jmp	.LBB12_5
.LBB12_4:
	movq	16(%r8), %rsi
	movq	24(%r8), %rcx
	movq	32(%r8), %rdx
	movq	40(%r8), %rax
	movq	48(%r8), %rbx
	movq	56(%r8), %r15
	movq	64(%r8), %r12
	movq	72(%r8), %r13
	movq	80(%r8), %r9
	movq	88(%r8), %r10
	movq	96(%r8), %r11
	movq	104(%r8), %r14
.LBB12_5:
	addq	$112, %r8
	jmp	.LBB12_6
.LBB12_3:
	movl	$mem_benchmark_12.sp12, %r8d
.LBB12_6:
	movq	(%r8), %r8
	testq	%rdi, %rdi
	je	.LBB12_8
	.p2align	4, 0x90
.LBB12_7:                               # =>This Inner Loop Header: Depth=1
	movq	(%rsi), %rsi
	movq	(%rcx), %rcx
	movq	(%rdx), %rdx
	movq	(%rax), %rax
	movq	(%rbx), %rbx
	movq	(%r15), %r15
	movq	(%r12), %r12
	movq	(%r13), %r13
	movq	(%r9), %r9
	movq	(%r10), %r10
	movq	(%r11), %r11
	movq	(%r14), %r14
	movq	(%r8), %r8
	movq	(%rsi), %rsi
	movq	(%rcx), %rcx
	movq	(%rdx), %rdx
	movq	(%rax), %rax
	movq	(%rbx), %rbx
	movq	(%r15), %r15
	movq	(%r12), %r12
	movq	(%r13), %r13
	movq	(%r9), %r9
	movq	(%r10), %r10
	movq	(%r11), %r11
	movq	(%r14), %r14
	movq	(%r8), %r8
	movq	(%rsi), %rsi
	movq	(%rcx), %rcx
	movq	(%rdx), %rdx
	movq	(%rax), %rax
	movq	(%rbx), %rbx
	movq	(%r15), %r15
	movq	(%r12), %r12
	movq	(%r13), %r13
	movq	(%r9), %r9
	movq	(%r10), %r10
	movq	(%r11), %r11
	movq	(%r14), %r14
	movq	(%r8), %r8
	movq	(%rsi), %rsi
	movq	(%rcx), %rcx
	movq	(%rdx), %rdx
	movq	(%rax), %rax
	movq	(%rbx), %rbx
	movq	(%r15), %r15
	movq	(%r12), %r12
	movq	(%r13), %r13
	movq	(%r9), %r9
	movq	(%r10), %r10
	movq	(%r11), %r11
	movq	(%r14), %r14
	movq	(%r8), %r8
	movq	(%rsi), %rsi
	movq	(%rcx), %rcx
	movq	(%rdx), %rdx
	movq	(%rax), %rax
	movq	(%rbx), %rbx
	movq	(%r15), %r15
	movq	(%r12), %r12
	movq	(%r13), %r13
	movq	(%r9), %r9
	movq	(%r10), %r10
	movq	(%r11), %r11
	movq	(%r14), %r14
	movq	(%r8), %r8
	movq	(%rsi), %rsi
	movq	(%rcx), %rcx
	movq	(%rdx), %rdx
	movq	(%rax), %rax
	movq	(%rbx), %rbx
	movq	(%r15), %r15
	movq	(%r12), %r12
	movq	(%r13), %r13
	movq	(%r9), %r9
	movq	(%r10), %r10
	movq	(%r11), %r11
	movq	(%r14), %r14
	movq	(%r8), %r8
	movq	(%rsi), %rsi
	movq	(%rcx), %rcx
	movq	(%rdx), %rdx
	movq	(%rax), %rax
	movq	(%rbx), %rbx
	movq	(%r15), %r15
	movq	(%r12), %r12
	movq	(%r13), %r13
	movq	(%r9), %r9
	movq	(%r10), %r10
	movq	(%r11), %r11
	movq	(%r14), %r14
	movq	(%r8), %r8
	movq	(%rsi), %rsi
	movq	(%rcx), %rcx
	movq	(%rdx), %rdx
	movq	(%rax), %rax
	movq	(%rbx), %rbx
	movq	(%r15), %r15
	movq	(%r12), %r12
	movq	(%r13), %r13
	movq	(%r9), %r9
	movq	(%r10), %r10
	movq	(%r11), %r11
	movq	(%r14), %r14
	movq	(%r8), %r8
	movq	(%rsi), %rsi
	movq	(%rcx), %rcx
	movq	(%rdx), %rdx
	movq	(%rax), %rax
	movq	(%rbx), %rbx
	movq	(%r15), %r15
	movq	(%r12), %r12
	movq	(%r13), %r13
	movq	(%r9), %r9
	movq	(%r10), %r10
	movq	(%r11), %r11
	movq	(%r14), %r14
	movq	(%r8), %r8
	movq	(%rsi), %rsi
	movq	(%rcx), %rcx
	movq	(%rdx), %rdx
	movq	(%rax), %rax
	movq	(%rbx), %rbx
	movq	(%r15), %r15
	movq	(%r12), %r12
	movq	(%r13), %r13
	movq	(%r9), %r9
	movq	(%r10), %r10
	movq	(%r11), %r11
	movq	(%r14), %r14
	movq	(%r8), %r8
	movq	(%rsi), %rsi
	movq	(%rcx), %rcx
	movq	(%rdx), %rdx
	movq	(%rax), %rax
	movq	(%rbx), %rbx
	movq	(%r15), %r15
	movq	(%r12), %r12
	movq	(%r13), %r13
	movq	(%r9), %r9
	movq	(%r10), %r10
	movq	(%r11), %r11
	movq	(%r14), %r14
	movq	(%r8), %r8
	movq	(%rsi), %rsi
	movq	(%rcx), %rcx
	movq	(%rdx), %rdx
	movq	(%rax), %rax
	movq	(%rbx), %rbx
	movq	(%r15), %r15
	movq	(%r12), %r12
	movq	(%r13), %r13
	movq	(%r9), %r9
	movq	(%r10), %r10
	movq	(%r11), %r11
	movq	(%r14), %r14
	movq	(%r8), %r8
	movq	(%rsi), %rsi
	movq	(%rcx), %rcx
	movq	(%rdx), %rdx
	movq	(%rax), %rax
	movq	(%rbx), %rbx
	movq	(%r15), %r15
	movq	(%r12), %r12
	movq	(%r13), %r13
	movq	(%r9), %r9
	movq	(%r10), %r10
	movq	(%r11), %r11
	movq	(%r14), %r14
	movq	(%r8), %r8
	movq	(%rsi), %rsi
	movq	(%rcx), %rcx
	movq	(%rdx), %rdx
	movq	(%rax), %rax
	movq	(%rbx), %rbx
	movq	(%r15), %r15
	movq	(%r12), %r12
	movq	(%r13), %r13
	movq	(%r9), %r9
	movq	(%r10), %r10
	movq	(%r11), %r11
	movq	(%r14), %r14
	movq	(%r8), %r8
	movq	(%rsi), %rsi
	movq	(%rcx), %rcx
	movq	(%rdx), %rdx
	movq	(%rax), %rax
	movq	(%rbx), %rbx
	movq	(%r15), %r15
	movq	(%r12), %r12
	movq	(%r13), %r13
	movq	(%r9), %r9
	movq	(%r10), %r10
	movq	(%r11), %r11
	movq	(%r14), %r14
	movq	(%r8), %r8
	movq	(%rsi), %rsi
	movq	(%rcx), %rcx
	movq	(%rdx), %rdx
	movq	(%rax), %rax
	movq	(%rbx), %rbx
	movq	(%r15), %r15
	movq	(%r12), %r12
	movq	(%r13), %r13
	movq	(%r9), %r9
	movq	(%r10), %r10
	movq	(%r11), %r11
	movq	(%r14), %r14
	movq	(%r8), %r8
	movq	(%rsi), %rsi
	movq	(%rcx), %rcx
	movq	(%rdx), %rdx
	movq	(%rax), %rax
	movq	(%rbx), %rbx
	movq	(%r15), %r15
	movq	(%r12), %r12
	movq	(%r13), %r13
	movq	(%r9), %r9
	movq	(%r10), %r10
	movq	(%r11), %r11
	movq	(%r14), %r14
	movq	(%r8), %r8
	movq	(%rsi), %rsi
	movq	(%rcx), %rcx
	movq	(%rdx), %rdx
	movq	(%rax), %rax
	movq	(%rbx), %rbx
	movq	(%r15), %r15
	movq	(%r12), %r12
	movq	(%r13), %r13
	movq	(%r9), %r9
	movq	(%r10), %r10
	movq	(%r11), %r11
	movq	(%r14), %r14
	movq	(%r8), %r8
	movq	(%rsi), %rsi
	movq	(%rcx), %rcx
	movq	(%rdx), %rdx
	movq	(%rax), %rax
	movq	(%rbx), %rbx
	movq	(%r15), %r15
	movq	(%r12), %r12
	movq	(%r13), %r13
	movq	(%r9), %r9
	movq	(%r10), %r10
	movq	(%r11), %r11
	movq	(%r14), %r14
	movq	(%r8), %r8
	movq	(%rsi), %rsi
	movq	(%rcx), %rcx
	movq	(%rdx), %rdx
	movq	(%rax), %rax
	movq	(%rbx), %rbx
	movq	(%r15), %r15
	movq	(%r12), %r12
	movq	(%r13), %r13
	movq	(%r9), %r9
	movq	(%r10), %r10
	movq	(%r11), %r11
	movq	(%r14), %r14
	movq	(%r8), %r8
	movq	(%rsi), %rsi
	movq	(%rcx), %rcx
	movq	(%rdx), %rdx
	movq	(%rax), %rax
	movq	(%rbx), %rbx
	movq	(%r15), %r15
	movq	(%r12), %r12
	movq	(%r13), %r13
	movq	(%r9), %r9
	movq	(%r10), %r10
	movq	(%r11), %r11
	movq	(%r14), %r14
	movq	(%r8), %r8
	movq	(%rsi), %rsi
	movq	(%rcx), %rcx
	movq	(%rdx), %rdx
	movq	(%rax), %rax
	movq	(%rbx), %rbx
	movq	(%r15), %r15
	movq	(%r12), %r12
	movq	(%r13), %r13
	movq	(%r9), %r9
	movq	(%r10), %r10
	movq	(%r11), %r11
	movq	(%r14), %r14
	movq	(%r8), %r8
	movq	(%rsi), %rsi
	movq	(%rcx), %rcx
	movq	(%rdx), %rdx
	movq	(%rax), %rax
	movq	(%rbx), %rbx
	movq	(%r15), %r15
	movq	(%r12), %r12
	movq	(%r13), %r13
	movq	(%r9), %r9
	movq	(%r10), %r10
	movq	(%r11), %r11
	movq	(%r14), %r14
	movq	(%r8), %r8
	movq	(%rsi), %rsi
	movq	(%rcx), %rcx
	movq	(%rdx), %rdx
	movq	(%rax), %rax
	movq	(%rbx), %rbx
	movq	(%r15), %r15
	movq	(%r12), %r12
	movq	(%r13), %r13
	movq	(%r9), %r9
	movq	(%r10), %r10
	movq	(%r11), %r11
	movq	(%r14), %r14
	movq	(%r8), %r8
	movq	(%rsi), %rsi
	movq	(%rcx), %rcx
	movq	(%rdx), %rdx
	movq	(%rax), %rax
	movq	(%rbx), %rbx
	movq	(%r15), %r15
	movq	(%r12), %r12
	movq	(%r13), %r13
	movq	(%r9), %r9
	movq	(%r10), %r10
	movq	(%r11), %r11
	movq	(%r14), %r14
	movq	(%r8), %r8
	movq	(%rsi), %rsi
	movq	(%rcx), %rcx
	movq	(%rdx), %rdx
	movq	(%rax), %rax
	movq	(%rbx), %rbx
	movq	(%r15), %r15
	movq	(%r12), %r12
	movq	(%r13), %r13
	movq	(%r9), %r9
	movq	(%r10), %r10
	movq	(%r11), %r11
	movq	(%r14), %r14
	movq	(%r8), %r8
	movq	(%rsi), %rsi
	movq	(%rcx), %rcx
	movq	(%rdx), %rdx
	movq	(%rax), %rax
	movq	(%rbx), %rbx
	movq	(%r15), %r15
	movq	(%r12), %r12
	movq	(%r13), %r13
	movq	(%r9), %r9
	movq	(%r10), %r10
	movq	(%r11), %r11
	movq	(%r14), %r14
	movq	(%r8), %r8
	movq	(%rsi), %rsi
	movq	(%rcx), %rcx
	movq	(%rdx), %rdx
	movq	(%rax), %rax
	movq	(%rbx), %rbx
	movq	(%r15), %r15
	movq	(%r12), %r12
	movq	(%r13), %r13
	movq	(%r9), %r9
	movq	(%r10), %r10
	movq	(%r11), %r11
	movq	(%r14), %r14
	movq	(%r8), %r8
	movq	(%rsi), %rsi
	movq	(%rcx), %rcx
	movq	(%rdx), %rdx
	movq	(%rax), %rax
	movq	(%rbx), %rbx
	movq	(%r15), %r15
	movq	(%r12), %r12
	movq	(%r13), %r13
	movq	(%r9), %r9
	movq	(%r10), %r10
	movq	(%r11), %r11
	movq	(%r14), %r14
	movq	(%r8), %r8
	movq	(%rsi), %rsi
	movq	(%rcx), %rcx
	movq	(%rdx), %rdx
	movq	(%rax), %rax
	movq	(%rbx), %rbx
	movq	(%r15), %r15
	movq	(%r12), %r12
	movq	(%r13), %r13
	movq	(%r9), %r9
	movq	(%r10), %r10
	movq	(%r11), %r11
	movq	(%r14), %r14
	movq	(%r8), %r8
	movq	(%rsi), %rsi
	movq	(%rcx), %rcx
	movq	(%rdx), %rdx
	movq	(%rax), %rax
	movq	(%rbx), %rbx
	movq	(%r15), %r15
	movq	(%r12), %r12
	movq	(%r13), %r13
	movq	(%r9), %r9
	movq	(%r10), %r10
	movq	(%r11), %r11
	movq	(%r14), %r14
	movq	(%r8), %r8
	movq	(%rsi), %rsi
	movq	(%rcx), %rcx
	movq	(%rdx), %rdx
	movq	(%rax), %rax
	movq	(%rbx), %rbx
	movq	(%r15), %r15
	movq	(%r12), %r12
	movq	(%r13), %r13
	movq	(%r9), %r9
	movq	(%r10), %r10
	movq	(%r11), %r11
	movq	(%r14), %r14
	movq	(%r8), %r8
	movq	(%rsi), %rsi
	movq	(%rcx), %rcx
	movq	(%rdx), %rdx
	movq	(%rax), %rax
	movq	(%rbx), %rbx
	movq	(%r15), %r15
	movq	(%r12), %r12
	movq	(%r13), %r13
	movq	(%r9), %r9
	movq	(%r10), %r10
	movq	(%r11), %r11
	movq	(%r14), %r14
	movq	(%r8), %r8
	movq	(%rsi), %rsi
	movq	(%rcx), %rcx
	movq	(%rdx), %rdx
	movq	(%rax), %rax
	movq	(%rbx), %rbx
	movq	(%r15), %r15
	movq	(%r12), %r12
	movq	(%r13), %r13
	movq	(%r9), %r9
	movq	(%r10), %r10
	movq	(%r11), %r11
	movq	(%r14), %r14
	movq	(%r8), %r8
	movq	(%rsi), %rsi
	movq	(%rcx), %rcx
	movq	(%rdx), %rdx
	movq	(%rax), %rax
	movq	(%rbx), %rbx
	movq	(%r15), %r15
	movq	(%r12), %r12
	movq	(%r13), %r13
	movq	(%r9), %r9
	movq	(%r10), %r10
	movq	(%r11), %r11
	movq	(%r14), %r14
	movq	(%r8), %r8
	movq	(%rsi), %rsi
	movq	(%rcx), %rcx
	movq	(%rdx), %rdx
	movq	(%rax), %rax
	movq	(%rbx), %rbx
	movq	(%r15), %r15
	movq	(%r12), %r12
	movq	(%r13), %r13
	movq	(%r9), %r9
	movq	(%r10), %r10
	movq	(%r11), %r11
	movq	(%r14), %r14
	movq	(%r8), %r8
	movq	(%rsi), %rsi
	movq	(%rcx), %rcx
	movq	(%rdx), %rdx
	movq	(%rax), %rax
	movq	(%rbx), %rbx
	movq	(%r15), %r15
	movq	(%r12), %r12
	movq	(%r13), %r13
	movq	(%r9), %r9
	movq	(%r10), %r10
	movq	(%r11), %r11
	movq	(%r14), %r14
	movq	(%r8), %r8
	movq	(%rsi), %rsi
	movq	(%rcx), %rcx
	movq	(%rdx), %rdx
	movq	(%rax), %rax
	movq	(%rbx), %rbx
	movq	(%r15), %r15
	movq	(%r12), %r12
	movq	(%r13), %r13
	movq	(%r9), %r9
	movq	(%r10), %r10
	movq	(%r11), %r11
	movq	(%r14), %r14
	movq	(%r8), %r8
	movq	(%rsi), %rsi
	movq	(%rcx), %rcx
	movq	(%rdx), %rdx
	movq	(%rax), %rax
	movq	(%rbx), %rbx
	movq	(%r15), %r15
	movq	(%r12), %r12
	movq	(%r13), %r13
	movq	(%r9), %r9
	movq	(%r10), %r10
	movq	(%r11), %r11
	movq	(%r14), %r14
	movq	(%r8), %r8
	movq	(%rsi), %rsi
	movq	(%rcx), %rcx
	movq	(%rdx), %rdx
	movq	(%rax), %rax
	movq	(%rbx), %rbx
	movq	(%r15), %r15
	movq	(%r12), %r12
	movq	(%r13), %r13
	movq	(%r9), %r9
	movq	(%r10), %r10
	movq	(%r11), %r11
	movq	(%r14), %r14
	movq	(%r8), %r8
	movq	(%rsi), %rsi
	movq	(%rcx), %rcx
	movq	(%rdx), %rdx
	movq	(%rax), %rax
	movq	(%rbx), %rbx
	movq	(%r15), %r15
	movq	(%r12), %r12
	movq	(%r13), %r13
	movq	(%r9), %r9
	movq	(%r10), %r10
	movq	(%r11), %r11
	movq	(%r14), %r14
	movq	(%r8), %r8
	movq	(%rsi), %rsi
	movq	(%rcx), %rcx
	movq	(%rdx), %rdx
	movq	(%rax), %rax
	movq	(%rbx), %rbx
	movq	(%r15), %r15
	movq	(%r12), %r12
	movq	(%r13), %r13
	movq	(%r9), %r9
	movq	(%r10), %r10
	movq	(%r11), %r11
	movq	(%r14), %r14
	movq	(%r8), %r8
	movq	(%rsi), %rsi
	movq	(%rcx), %rcx
	movq	(%rdx), %rdx
	movq	(%rax), %rax
	movq	(%rbx), %rbx
	movq	(%r15), %r15
	movq	(%r12), %r12
	movq	(%r13), %r13
	movq	(%r9), %r9
	movq	(%r10), %r10
	movq	(%r11), %r11
	movq	(%r14), %r14
	movq	(%r8), %r8
	movq	(%rsi), %rsi
	movq	(%rcx), %rcx
	movq	(%rdx), %rdx
	movq	(%rax), %rax
	movq	(%rbx), %rbx
	movq	(%r15), %r15
	movq	(%r12), %r12
	movq	(%r13), %r13
	movq	(%r9), %r9
	movq	(%r10), %r10
	movq	(%r11), %r11
	movq	(%r14), %r14
	movq	(%r8), %r8
	movq	(%rsi), %rsi
	movq	(%rcx), %rcx
	movq	(%rdx), %rdx
	movq	(%rax), %rax
	movq	(%rbx), %rbx
	movq	(%r15), %r15
	movq	(%r12), %r12
	movq	(%r13), %r13
	movq	(%r9), %r9
	movq	(%r10), %r10
	movq	(%r11), %r11
	movq	(%r14), %r14
	movq	(%r8), %r8
	movq	(%rsi), %rsi
	movq	(%rcx), %rcx
	movq	(%rdx), %rdx
	movq	(%rax), %rax
	movq	(%rbx), %rbx
	movq	(%r15), %r15
	movq	(%r12), %r12
	movq	(%r13), %r13
	movq	(%r9), %r9
	movq	(%r10), %r10
	movq	(%r11), %r11
	movq	(%r14), %r14
	movq	(%r8), %r8
	movq	(%rsi), %rsi
	movq	(%rcx), %rcx
	movq	(%rdx), %rdx
	movq	(%rax), %rax
	movq	(%rbx), %rbx
	movq	(%r15), %r15
	movq	(%r12), %r12
	movq	(%r13), %r13
	movq	(%r9), %r9
	movq	(%r10), %r10
	movq	(%r11), %r11
	movq	(%r14), %r14
	movq	(%r8), %r8
	movq	(%rsi), %rsi
	movq	(%rcx), %rcx
	movq	(%rdx), %rdx
	movq	(%rax), %rax
	movq	(%rbx), %rbx
	movq	(%r15), %r15
	movq	(%r12), %r12
	movq	(%r13), %r13
	movq	(%r9), %r9
	movq	(%r10), %r10
	movq	(%r11), %r11
	movq	(%r14), %r14
	movq	(%r8), %r8
	movq	(%rsi), %rsi
	movq	(%rcx), %rcx
	movq	(%rdx), %rdx
	movq	(%rax), %rax
	movq	(%rbx), %rbx
	movq	(%r15), %r15
	movq	(%r12), %r12
	movq	(%r13), %r13
	movq	(%r9), %r9
	movq	(%r10), %r10
	movq	(%r11), %r11
	movq	(%r14), %r14
	movq	(%r8), %r8
	movq	(%rsi), %rsi
	movq	(%rcx), %rcx
	movq	(%rdx), %rdx
	movq	(%rax), %rax
	movq	(%rbx), %rbx
	movq	(%r15), %r15
	movq	(%r12), %r12
	movq	(%r13), %r13
	movq	(%r9), %r9
	movq	(%r10), %r10
	movq	(%r11), %r11
	movq	(%r14), %r14
	movq	(%r8), %r8
	movq	(%rsi), %rsi
	movq	(%rcx), %rcx
	movq	(%rdx), %rdx
	movq	(%rax), %rax
	movq	(%rbx), %rbx
	movq	(%r15), %r15
	movq	(%r12), %r12
	movq	(%r13), %r13
	movq	(%r9), %r9
	movq	(%r10), %r10
	movq	(%r11), %r11
	movq	(%r14), %r14
	movq	(%r8), %r8
	movq	(%rsi), %rsi
	movq	(%rcx), %rcx
	movq	(%rdx), %rdx
	movq	(%rax), %rax
	movq	(%rbx), %rbx
	movq	(%r15), %r15
	movq	(%r12), %r12
	movq	(%r13), %r13
	movq	(%r9), %r9
	movq	(%r10), %r10
	movq	(%r11), %r11
	movq	(%r14), %r14
	movq	(%r8), %r8
	movq	(%rsi), %rsi
	movq	(%rcx), %rcx
	movq	(%rdx), %rdx
	movq	(%rax), %rax
	movq	(%rbx), %rbx
	movq	(%r15), %r15
	movq	(%r12), %r12
	movq	(%r13), %r13
	movq	(%r9), %r9
	movq	(%r10), %r10
	movq	(%r11), %r11
	movq	(%r14), %r14
	movq	(%r8), %r8
	movq	(%rsi), %rsi
	movq	(%rcx), %rcx
	movq	(%rdx), %rdx
	movq	(%rax), %rax
	movq	(%rbx), %rbx
	movq	(%r15), %r15
	movq	(%r12), %r12
	movq	(%r13), %r13
	movq	(%r9), %r9
	movq	(%r10), %r10
	movq	(%r11), %r11
	movq	(%r14), %r14
	movq	(%r8), %r8
	movq	(%rsi), %rsi
	movq	(%rcx), %rcx
	movq	(%rdx), %rdx
	movq	(%rax), %rax
	movq	(%rbx), %rbx
	movq	(%r15), %r15
	movq	(%r12), %r12
	movq	(%r13), %r13
	movq	(%r9), %r9
	movq	(%r10), %r10
	movq	(%r11), %r11
	movq	(%r14), %r14
	movq	(%r8), %r8
	movq	(%rsi), %rsi
	movq	(%rcx), %rcx
	movq	(%rdx), %rdx
	movq	(%rax), %rax
	movq	(%rbx), %rbx
	movq	(%r15), %r15
	movq	(%r12), %r12
	movq	(%r13), %r13
	movq	(%r9), %r9
	movq	(%r10), %r10
	movq	(%r11), %r11
	movq	(%r14), %r14
	movq	(%r8), %r8
	movq	(%rsi), %rsi
	movq	(%rcx), %rcx
	movq	(%rdx), %rdx
	movq	(%rax), %rax
	movq	(%rbx), %rbx
	movq	(%r15), %r15
	movq	(%r12), %r12
	movq	(%r13), %r13
	movq	(%r9), %r9
	movq	(%r10), %r10
	movq	(%r11), %r11
	movq	(%r14), %r14
	movq	(%r8), %r8
	movq	(%rsi), %rsi
	movq	(%rcx), %rcx
	movq	(%rdx), %rdx
	movq	(%rax), %rax
	movq	(%rbx), %rbx
	movq	(%r15), %r15
	movq	(%r12), %r12
	movq	(%r13), %r13
	movq	(%r9), %r9
	movq	(%r10), %r10
	movq	(%r11), %r11
	movq	(%r14), %r14
	movq	(%r8), %r8
	movq	(%rsi), %rsi
	movq	(%rcx), %rcx
	movq	(%rdx), %rdx
	movq	(%rax), %rax
	movq	(%rbx), %rbx
	movq	(%r15), %r15
	movq	(%r12), %r12
	movq	(%r13), %r13
	movq	(%r9), %r9
	movq	(%r10), %r10
	movq	(%r11), %r11
	movq	(%r14), %r14
	movq	(%r8), %r8
	movq	(%rsi), %rsi
	movq	(%rcx), %rcx
	movq	(%rdx), %rdx
	movq	(%rax), %rax
	movq	(%rbx), %rbx
	movq	(%r15), %r15
	movq	(%r12), %r12
	movq	(%r13), %r13
	movq	(%r9), %r9
	movq	(%r10), %r10
	movq	(%r11), %r11
	movq	(%r14), %r14
	movq	(%r8), %r8
	movq	(%rsi), %rsi
	movq	(%rcx), %rcx
	movq	(%rdx), %rdx
	movq	(%rax), %rax
	movq	(%rbx), %rbx
	movq	(%r15), %r15
	movq	(%r12), %r12
	movq	(%r13), %r13
	movq	(%r9), %r9
	movq	(%r10), %r10
	movq	(%r11), %r11
	movq	(%r14), %r14
	movq	(%r8), %r8
	movq	(%rsi), %rsi
	movq	(%rcx), %rcx
	movq	(%rdx), %rdx
	movq	(%rax), %rax
	movq	(%rbx), %rbx
	movq	(%r15), %r15
	movq	(%r12), %r12
	movq	(%r13), %r13
	movq	(%r9), %r9
	movq	(%r10), %r10
	movq	(%r11), %r11
	movq	(%r14), %r14
	movq	(%r8), %r8
	movq	(%rsi), %rsi
	movq	(%rcx), %rcx
	movq	(%rdx), %rdx
	movq	(%rax), %rax
	movq	(%rbx), %rbx
	movq	(%r15), %r15
	movq	(%r12), %r12
	movq	(%r13), %r13
	movq	(%r9), %r9
	movq	(%r10), %r10
	movq	(%r11), %r11
	movq	(%r14), %r14
	movq	(%r8), %r8
	movq	(%rsi), %rsi
	movq	(%rcx), %rcx
	movq	(%rdx), %rdx
	movq	(%rax), %rax
	movq	(%rbx), %rbx
	movq	(%r15), %r15
	movq	(%r12), %r12
	movq	(%r13), %r13
	movq	(%r9), %r9
	movq	(%r10), %r10
	movq	(%r11), %r11
	movq	(%r14), %r14
	movq	(%r8), %r8
	movq	(%rsi), %rsi
	movq	(%rcx), %rcx
	movq	(%rdx), %rdx
	movq	(%rax), %rax
	movq	(%rbx), %rbx
	movq	(%r15), %r15
	movq	(%r12), %r12
	movq	(%r13), %r13
	movq	(%r9), %r9
	movq	(%r10), %r10
	movq	(%r11), %r11
	movq	(%r14), %r14
	movq	(%r8), %r8
	movq	(%rsi), %rsi
	movq	(%rcx), %rcx
	movq	(%rdx), %rdx
	movq	(%rax), %rax
	movq	(%rbx), %rbx
	movq	(%r15), %r15
	movq	(%r12), %r12
	movq	(%r13), %r13
	movq	(%r9), %r9
	movq	(%r10), %r10
	movq	(%r11), %r11
	movq	(%r14), %r14
	movq	(%r8), %r8
	movq	(%rsi), %rsi
	movq	(%rcx), %rcx
	movq	(%rdx), %rdx
	movq	(%rax), %rax
	movq	(%rbx), %rbx
	movq	(%r15), %r15
	movq	(%r12), %r12
	movq	(%r13), %r13
	movq	(%r9), %r9
	movq	(%r10), %r10
	movq	(%r11), %r11
	movq	(%r14), %r14
	movq	(%r8), %r8
	movq	(%rsi), %rsi
	movq	(%rcx), %rcx
	movq	(%rdx), %rdx
	movq	(%rax), %rax
	movq	(%rbx), %rbx
	movq	(%r15), %r15
	movq	(%r12), %r12
	movq	(%r13), %r13
	movq	(%r9), %r9
	movq	(%r10), %r10
	movq	(%r11), %r11
	movq	(%r14), %r14
	movq	(%r8), %r8
	movq	(%rsi), %rsi
	movq	(%rcx), %rcx
	movq	(%rdx), %rdx
	movq	(%rax), %rax
	movq	(%rbx), %rbx
	movq	(%r15), %r15
	movq	(%r12), %r12
	movq	(%r13), %r13
	movq	(%r9), %r9
	movq	(%r10), %r10
	movq	(%r11), %r11
	movq	(%r14), %r14
	movq	(%r8), %r8
	movq	(%rsi), %rsi
	movq	(%rcx), %rcx
	movq	(%rdx), %rdx
	movq	(%rax), %rax
	movq	(%rbx), %rbx
	movq	(%r15), %r15
	movq	(%r12), %r12
	movq	(%r13), %r13
	movq	(%r9), %r9
	movq	(%r10), %r10
	movq	(%r11), %r11
	movq	(%r14), %r14
	movq	(%r8), %r8
	movq	(%rsi), %rsi
	movq	(%rcx), %rcx
	movq	(%rdx), %rdx
	movq	(%rax), %rax
	movq	(%rbx), %rbx
	movq	(%r15), %r15
	movq	(%r12), %r12
	movq	(%r13), %r13
	movq	(%r9), %r9
	movq	(%r10), %r10
	movq	(%r11), %r11
	movq	(%r14), %r14
	movq	(%r8), %r8
	movq	(%rsi), %rsi
	movq	(%rcx), %rcx
	movq	(%rdx), %rdx
	movq	(%rax), %rax
	movq	(%rbx), %rbx
	movq	(%r15), %r15
	movq	(%r12), %r12
	movq	(%r13), %r13
	movq	(%r9), %r9
	movq	(%r10), %r10
	movq	(%r11), %r11
	movq	(%r14), %r14
	movq	(%r8), %r8
	movq	(%rsi), %rsi
	movq	(%rcx), %rcx
	movq	(%rdx), %rdx
	movq	(%rax), %rax
	movq	(%rbx), %rbx
	movq	(%r15), %r15
	movq	(%r12), %r12
	movq	(%r13), %r13
	movq	(%r9), %r9
	movq	(%r10), %r10
	movq	(%r11), %r11
	movq	(%r14), %r14
	movq	(%r8), %r8
	movq	(%rsi), %rsi
	movq	(%rcx), %rcx
	movq	(%rdx), %rdx
	movq	(%rax), %rax
	movq	(%rbx), %rbx
	movq	(%r15), %r15
	movq	(%r12), %r12
	movq	(%r13), %r13
	movq	(%r9), %r9
	movq	(%r10), %r10
	movq	(%r11), %r11
	movq	(%r14), %r14
	movq	(%r8), %r8
	movq	(%rsi), %rsi
	movq	(%rcx), %rcx
	movq	(%rdx), %rdx
	movq	(%rax), %rax
	movq	(%rbx), %rbx
	movq	(%r15), %r15
	movq	(%r12), %r12
	movq	(%r13), %r13
	movq	(%r9), %r9
	movq	(%r10), %r10
	movq	(%r11), %r11
	movq	(%r14), %r14
	movq	(%r8), %r8
	movq	(%rsi), %rsi
	movq	(%rcx), %rcx
	movq	(%rdx), %rdx
	movq	(%rax), %rax
	movq	(%rbx), %rbx
	movq	(%r15), %r15
	movq	(%r12), %r12
	movq	(%r13), %r13
	movq	(%r9), %r9
	movq	(%r10), %r10
	movq	(%r11), %r11
	movq	(%r14), %r14
	movq	(%r8), %r8
	movq	(%rsi), %rsi
	movq	(%rcx), %rcx
	movq	(%rdx), %rdx
	movq	(%rax), %rax
	movq	(%rbx), %rbx
	movq	(%r15), %r15
	movq	(%r12), %r12
	movq	(%r13), %r13
	movq	(%r9), %r9
	movq	(%r10), %r10
	movq	(%r11), %r11
	movq	(%r14), %r14
	movq	(%r8), %r8
	movq	(%rsi), %rsi
	movq	(%rcx), %rcx
	movq	(%rdx), %rdx
	movq	(%rax), %rax
	movq	(%rbx), %rbx
	movq	(%r15), %r15
	movq	(%r12), %r12
	movq	(%r13), %r13
	movq	(%r9), %r9
	movq	(%r10), %r10
	movq	(%r11), %r11
	movq	(%r14), %r14
	movq	(%r8), %r8
	movq	(%rsi), %rsi
	movq	(%rcx), %rcx
	movq	(%rdx), %rdx
	movq	(%rax), %rax
	movq	(%rbx), %rbx
	movq	(%r15), %r15
	movq	(%r12), %r12
	movq	(%r13), %r13
	movq	(%r9), %r9
	movq	(%r10), %r10
	movq	(%r11), %r11
	movq	(%r14), %r14
	movq	(%r8), %r8
	movq	(%rsi), %rsi
	movq	(%rcx), %rcx
	movq	(%rdx), %rdx
	movq	(%rax), %rax
	movq	(%rbx), %rbx
	movq	(%r15), %r15
	movq	(%r12), %r12
	movq	(%r13), %r13
	movq	(%r9), %r9
	movq	(%r10), %r10
	movq	(%r11), %r11
	movq	(%r14), %r14
	movq	(%r8), %r8
	movq	(%rsi), %rsi
	movq	(%rcx), %rcx
	movq	(%rdx), %rdx
	movq	(%rax), %rax
	movq	(%rbx), %rbx
	movq	(%r15), %r15
	movq	(%r12), %r12
	movq	(%r13), %r13
	movq	(%r9), %r9
	movq	(%r10), %r10
	movq	(%r11), %r11
	movq	(%r14), %r14
	movq	(%r8), %r8
	movq	(%rsi), %rsi
	movq	(%rcx), %rcx
	movq	(%rdx), %rdx
	movq	(%rax), %rax
	movq	(%rbx), %rbx
	movq	(%r15), %r15
	movq	(%r12), %r12
	movq	(%r13), %r13
	movq	(%r9), %r9
	movq	(%r10), %r10
	movq	(%r11), %r11
	movq	(%r14), %r14
	movq	(%r8), %r8
	movq	(%rsi), %rsi
	movq	(%rcx), %rcx
	movq	(%rdx), %rdx
	movq	(%rax), %rax
	movq	(%rbx), %rbx
	movq	(%r15), %r15
	movq	(%r12), %r12
	movq	(%r13), %r13
	movq	(%r9), %r9
	movq	(%r10), %r10
	movq	(%r11), %r11
	movq	(%r14), %r14
	movq	(%r8), %r8
	movq	(%rsi), %rsi
	movq	(%rcx), %rcx
	movq	(%rdx), %rdx
	movq	(%rax), %rax
	movq	(%rbx), %rbx
	movq	(%r15), %r15
	movq	(%r12), %r12
	movq	(%r13), %r13
	movq	(%r9), %r9
	movq	(%r10), %r10
	movq	(%r11), %r11
	movq	(%r14), %r14
	movq	(%r8), %r8
	movq	(%rsi), %rsi
	movq	(%rcx), %rcx
	movq	(%rdx), %rdx
	movq	(%rax), %rax
	movq	(%rbx), %rbx
	movq	(%r15), %r15
	movq	(%r12), %r12
	movq	(%r13), %r13
	movq	(%r9), %r9
	movq	(%r10), %r10
	movq	(%r11), %r11
	movq	(%r14), %r14
	movq	(%r8), %r8
	movq	(%rsi), %rsi
	movq	(%rcx), %rcx
	movq	(%rdx), %rdx
	movq	(%rax), %rax
	movq	(%rbx), %rbx
	movq	(%r15), %r15
	movq	(%r12), %r12
	movq	(%r13), %r13
	movq	(%r9), %r9
	movq	(%r10), %r10
	movq	(%r11), %r11
	movq	(%r14), %r14
	movq	(%r8), %r8
	movq	(%rsi), %rsi
	movq	(%rcx), %rcx
	movq	(%rdx), %rdx
	movq	(%rax), %rax
	movq	(%rbx), %rbx
	movq	(%r15), %r15
	movq	(%r12), %r12
	movq	(%r13), %r13
	movq	(%r9), %r9
	movq	(%r10), %r10
	movq	(%r11), %r11
	movq	(%r14), %r14
	movq	(%r8), %r8
	movq	(%rsi), %rsi
	movq	(%rcx), %rcx
	movq	(%rdx), %rdx
	movq	(%rax), %rax
	movq	(%rbx), %rbx
	movq	(%r15), %r15
	movq	(%r12), %r12
	movq	(%r13), %r13
	movq	(%r9), %r9
	movq	(%r10), %r10
	movq	(%r11), %r11
	movq	(%r14), %r14
	movq	(%r8), %r8
	movq	(%rsi), %rsi
	movq	(%rcx), %rcx
	movq	(%rdx), %rdx
	movq	(%rax), %rax
	movq	(%rbx), %rbx
	movq	(%r15), %r15
	movq	(%r12), %r12
	movq	(%r13), %r13
	movq	(%r9), %r9
	movq	(%r10), %r10
	movq	(%r11), %r11
	movq	(%r14), %r14
	movq	(%r8), %r8
	movq	(%rsi), %rsi
	movq	(%rcx), %rcx
	movq	(%rdx), %rdx
	movq	(%rax), %rax
	movq	(%rbx), %rbx
	movq	(%r15), %r15
	movq	(%r12), %r12
	movq	(%r13), %r13
	movq	(%r9), %r9
	movq	(%r10), %r10
	movq	(%r11), %r11
	movq	(%r14), %r14
	movq	(%r8), %r8
	movq	(%rsi), %rsi
	movq	(%rcx), %rcx
	movq	(%rdx), %rdx
	movq	(%rax), %rax
	movq	(%rbx), %rbx
	movq	(%r15), %r15
	movq	(%r12), %r12
	movq	(%r13), %r13
	movq	(%r9), %r9
	movq	(%r10), %r10
	movq	(%r11), %r11
	movq	(%r14), %r14
	movq	(%r8), %r8
	movq	(%rsi), %rsi
	movq	(%rcx), %rcx
	movq	(%rdx), %rdx
	movq	(%rax), %rax
	movq	(%rbx), %rbx
	movq	(%r15), %r15
	movq	(%r12), %r12
	movq	(%r13), %r13
	movq	(%r9), %r9
	movq	(%r10), %r10
	movq	(%r11), %r11
	movq	(%r14), %r14
	movq	(%r8), %r8
	movq	(%rsi), %rsi
	movq	(%rcx), %rcx
	movq	(%rdx), %rdx
	movq	(%rax), %rax
	movq	(%rbx), %rbx
	movq	(%r15), %r15
	movq	(%r12), %r12
	movq	(%r13), %r13
	movq	(%r9), %r9
	movq	(%r10), %r10
	movq	(%r11), %r11
	movq	(%r14), %r14
	movq	(%r8), %r8
	movq	(%rsi), %rsi
	movq	(%rcx), %rcx
	movq	(%rdx), %rdx
	movq	(%rax), %rax
	movq	(%rbx), %rbx
	movq	(%r15), %r15
	movq	(%r12), %r12
	movq	(%r13), %r13
	movq	(%r9), %r9
	movq	(%r10), %r10
	movq	(%r11), %r11
	movq	(%r14), %r14
	movq	(%r8), %r8
	movq	(%rsi), %rsi
	movq	(%rcx), %rcx
	movq	(%rdx), %rdx
	movq	(%rax), %rax
	movq	(%rbx), %rbx
	movq	(%r15), %r15
	movq	(%r12), %r12
	movq	(%r13), %r13
	movq	(%r9), %r9
	movq	(%r10), %r10
	movq	(%r11), %r11
	movq	(%r14), %r14
	movq	(%r8), %r8
	movq	(%rsi), %rsi
	movq	(%rcx), %rcx
	movq	(%rdx), %rdx
	movq	(%rax), %rax
	movq	(%rbx), %rbx
	movq	(%r15), %r15
	movq	(%r12), %r12
	movq	(%r13), %r13
	movq	(%r9), %r9
	movq	(%r10), %r10
	movq	(%r11), %r11
	movq	(%r14), %r14
	movq	(%r8), %r8
	movq	(%rsi), %rsi
	movq	(%rcx), %rcx
	movq	(%rdx), %rdx
	movq	(%rax), %rax
	movq	(%rbx), %rbx
	movq	(%r15), %r15
	movq	(%r12), %r12
	movq	(%r13), %r13
	movq	(%r9), %r9
	movq	(%r10), %r10
	movq	(%r11), %r11
	movq	(%r14), %r14
	movq	(%r8), %r8
	movq	(%rsi), %rsi
	movq	(%rcx), %rcx
	movq	(%rdx), %rdx
	movq	(%rax), %rax
	movq	(%rbx), %rbx
	movq	(%r15), %r15
	movq	(%r12), %r12
	movq	(%r13), %r13
	movq	(%r9), %r9
	movq	(%r10), %r10
	movq	(%r11), %r11
	movq	(%r14), %r14
	movq	(%r8), %r8
	movq	(%rsi), %rsi
	movq	(%rcx), %rcx
	movq	(%rdx), %rdx
	movq	(%rax), %rax
	movq	(%rbx), %rbx
	movq	(%r15), %r15
	movq	(%r12), %r12
	movq	(%r13), %r13
	movq	(%r9), %r9
	movq	(%r10), %r10
	movq	(%r11), %r11
	movq	(%r14), %r14
	movq	(%r8), %r8
	movq	(%rsi), %rsi
	movq	(%rcx), %rcx
	movq	(%rdx), %rdx
	movq	(%rax), %rax
	movq	(%rbx), %rbx
	movq	(%r15), %r15
	movq	(%r12), %r12
	movq	(%r13), %r13
	movq	(%r9), %r9
	movq	(%r10), %r10
	movq	(%r11), %r11
	movq	(%r14), %r14
	movq	(%r8), %r8
	addq	$-1, %rdi
	jne	.LBB12_7
.LBB12_8:
	movq	%rsi, mem_benchmark_12.sp0(%rip)
	movq	%rcx, mem_benchmark_12.sp1(%rip)
	movq	%rdx, mem_benchmark_12.sp2(%rip)
	movq	%rax, mem_benchmark_12.sp3(%rip)
	movq	%rbx, mem_benchmark_12.sp4(%rip)
	movq	%r15, mem_benchmark_12.sp5(%rip)
	movq	%r12, mem_benchmark_12.sp6(%rip)
	movq	%r13, mem_benchmark_12.sp7(%rip)
	movq	%r9, mem_benchmark_12.sp8(%rip)
	movq	%r10, mem_benchmark_12.sp9(%rip)
	movq	%r11, mem_benchmark_12.sp10(%rip)
	movq	%r14, mem_benchmark_12.sp11(%rip)
	movq	%r8, mem_benchmark_12.sp12(%rip)
	movq	-48(%rbp), %rax         # 8-byte Reload
	movq	(%rax), %rax
	movq	%rax, mem_benchmark_12.addr_save(%rip)
	movb	$1, mem_benchmark_rerun(%rip)
	popq	%rbx
	popq	%r12
	popq	%r13
	popq	%r14
	popq	%r15
	popq	%rbp
	.cfi_def_cfa %rsp, 8
	retq
.Lfunc_end12:
	.size	mem_benchmark_12, .Lfunc_end12-mem_benchmark_12
	.cfi_endproc
                                        # -- End function
	.globl	mem_benchmark_13        # -- Begin function mem_benchmark_13
	.p2align	4, 0x90
	.type	mem_benchmark_13,@function
mem_benchmark_13:                       # @mem_benchmark_13
	.cfi_startproc
# %bb.0:
	pushq	%rbp
	.cfi_def_cfa_offset 16
	.cfi_offset %rbp, -16
	movq	%rsp, %rbp
	.cfi_def_cfa_register %rbp
	pushq	%r15
	pushq	%r14
	pushq	%r13
	pushq	%r12
	pushq	%rbx
	.cfi_offset %rbx, -56
	.cfi_offset %r12, -48
	.cfi_offset %r13, -40
	.cfi_offset %r14, -32
	.cfi_offset %r15, -24
	movq	%rdi, -56(%rbp)         # 8-byte Spill
	cmpb	$1, mem_benchmark_rerun(%rip)
	movq	%rsi, -64(%rbp)         # 8-byte Spill
	jne	.LBB13_4
# %bb.1:
	movq	mem_benchmark_13.addr_save(%rip), %rcx
	leaq	16(%rsi), %rdx
	leaq	24(%rsi), %rax
	movl	$mem_benchmark_13.sp0, %edi
	cmpq	(%rsi), %rcx
	cmovneq	%rdx, %rdi
	movq	%rdi, -48(%rbp)         # 8-byte Spill
	leaq	32(%rsi), %rdi
	movl	$mem_benchmark_13.sp1, %ecx
	cmovneq	%rax, %rcx
	leaq	40(%rsi), %rbx
	movl	$mem_benchmark_13.sp2, %edx
	cmovneq	%rdi, %rdx
	leaq	48(%rsi), %rdi
	movl	$mem_benchmark_13.sp3, %eax
	cmovneq	%rbx, %rax
	leaq	56(%rsi), %r8
	movl	$mem_benchmark_13.sp4, %ebx
	cmovneq	%rdi, %rbx
	leaq	64(%rsi), %rdi
	movl	$mem_benchmark_13.sp5, %r13d
	cmovneq	%r8, %r13
	leaq	72(%rsi), %r11
	movl	$mem_benchmark_13.sp6, %r12d
	cmovneq	%rdi, %r12
	leaq	80(%rsi), %rdi
	movl	$mem_benchmark_13.sp7, %r9d
	cmovneq	%r11, %r9
	leaq	88(%rsi), %r8
	movl	$mem_benchmark_13.sp8, %r11d
	cmovneq	%rdi, %r11
	leaq	96(%rsi), %rdi
	movl	$mem_benchmark_13.sp9, %r10d
	cmovneq	%r8, %r10
	leaq	104(%rsi), %r15
	movl	$mem_benchmark_13.sp10, %r14d
	cmovneq	%rdi, %r14
	movl	$mem_benchmark_13.sp11, %r8d
	cmovneq	%r15, %r8
	leaq	112(%rsi), %rdi
	movl	$mem_benchmark_13.sp12, %r15d
	cmovneq	%rdi, %r15
	movq	-48(%rbp), %rsi         # 8-byte Reload
	movq	(%rsi), %rdi
	movq	(%rcx), %rcx
	movq	(%rdx), %rdx
	movq	(%rax), %rax
	movq	(%rbx), %rbx
	movq	(%r13), %rsi
	movq	%rsi, -48(%rbp)         # 8-byte Spill
	movq	(%r12), %r12
	movq	(%r9), %r13
	movq	(%r11), %r9
	movq	(%r10), %r10
	movq	(%r14), %r11
	movq	(%r8), %r14
	movq	(%r15), %r8
	je	.LBB13_3
# %bb.2:
	movq	-64(%rbp), %rsi         # 8-byte Reload
	jmp	.LBB13_5
.LBB13_4:
	movq	16(%rsi), %r8
	movq	24(%rsi), %rcx
	movq	32(%rsi), %rdx
	movq	40(%rsi), %rax
	movq	48(%rsi), %rbx
	movq	56(%rsi), %rdi
	movq	%rdi, -48(%rbp)         # 8-byte Spill
	movq	%r8, %rdi
	movq	64(%rsi), %r12
	movq	72(%rsi), %r13
	movq	80(%rsi), %r9
	movq	88(%rsi), %r10
	movq	96(%rsi), %r11
	movq	104(%rsi), %r14
	movq	112(%rsi), %r8
.LBB13_5:
	leaq	120(%rsi), %r15
	jmp	.LBB13_6
.LBB13_3:
	movl	$mem_benchmark_13.sp13, %r15d
.LBB13_6:
	movq	(%r15), %r15
	movq	-56(%rbp), %rsi         # 8-byte Reload
	testq	%rsi, %rsi
	je	.LBB13_8
	.p2align	4, 0x90
.LBB13_7:                               # =>This Inner Loop Header: Depth=1
	movq	%rsi, -56(%rbp)         # 8-byte Spill
	movq	(%rdi), %rdi
	movq	(%rcx), %rcx
	movq	(%rdx), %rdx
	movq	(%rax), %rax
	movq	(%rbx), %rbx
	movq	-48(%rbp), %rsi         # 8-byte Reload
	movq	(%rsi), %rsi
	movq	(%r12), %r12
	movq	(%r13), %r13
	movq	(%r9), %r9
	movq	(%r10), %r10
	movq	(%r11), %r11
	movq	(%r14), %r14
	movq	(%r8), %r8
	movq	(%r15), %r15
	movq	(%rdi), %rdi
	movq	(%rcx), %rcx
	movq	(%rdx), %rdx
	movq	(%rax), %rax
	movq	(%rbx), %rbx
	movq	(%rsi), %rsi
	movq	(%r12), %r12
	movq	(%r13), %r13
	movq	(%r9), %r9
	movq	(%r10), %r10
	movq	(%r11), %r11
	movq	(%r14), %r14
	movq	(%r8), %r8
	movq	(%r15), %r15
	movq	(%rdi), %rdi
	movq	(%rcx), %rcx
	movq	(%rdx), %rdx
	movq	(%rax), %rax
	movq	(%rbx), %rbx
	movq	(%rsi), %rsi
	movq	(%r12), %r12
	movq	(%r13), %r13
	movq	(%r9), %r9
	movq	(%r10), %r10
	movq	(%r11), %r11
	movq	(%r14), %r14
	movq	(%r8), %r8
	movq	(%r15), %r15
	movq	(%rdi), %rdi
	movq	(%rcx), %rcx
	movq	(%rdx), %rdx
	movq	(%rax), %rax
	movq	(%rbx), %rbx
	movq	(%rsi), %rsi
	movq	(%r12), %r12
	movq	(%r13), %r13
	movq	(%r9), %r9
	movq	(%r10), %r10
	movq	(%r11), %r11
	movq	(%r14), %r14
	movq	(%r8), %r8
	movq	(%r15), %r15
	movq	(%rdi), %rdi
	movq	(%rcx), %rcx
	movq	(%rdx), %rdx
	movq	(%rax), %rax
	movq	(%rbx), %rbx
	movq	(%rsi), %rsi
	movq	(%r12), %r12
	movq	(%r13), %r13
	movq	(%r9), %r9
	movq	(%r10), %r10
	movq	(%r11), %r11
	movq	(%r14), %r14
	movq	(%r8), %r8
	movq	(%r15), %r15
	movq	(%rdi), %rdi
	movq	(%rcx), %rcx
	movq	(%rdx), %rdx
	movq	(%rax), %rax
	movq	(%rbx), %rbx
	movq	(%rsi), %rsi
	movq	(%r12), %r12
	movq	(%r13), %r13
	movq	(%r9), %r9
	movq	(%r10), %r10
	movq	(%r11), %r11
	movq	(%r14), %r14
	movq	(%r8), %r8
	movq	(%r15), %r15
	movq	(%rdi), %rdi
	movq	(%rcx), %rcx
	movq	(%rdx), %rdx
	movq	(%rax), %rax
	movq	(%rbx), %rbx
	movq	(%rsi), %rsi
	movq	(%r12), %r12
	movq	(%r13), %r13
	movq	(%r9), %r9
	movq	(%r10), %r10
	movq	(%r11), %r11
	movq	(%r14), %r14
	movq	(%r8), %r8
	movq	(%r15), %r15
	movq	(%rdi), %rdi
	movq	(%rcx), %rcx
	movq	(%rdx), %rdx
	movq	(%rax), %rax
	movq	(%rbx), %rbx
	movq	(%rsi), %rsi
	movq	(%r12), %r12
	movq	(%r13), %r13
	movq	(%r9), %r9
	movq	(%r10), %r10
	movq	(%r11), %r11
	movq	(%r14), %r14
	movq	(%r8), %r8
	movq	(%r15), %r15
	movq	(%rdi), %rdi
	movq	(%rcx), %rcx
	movq	(%rdx), %rdx
	movq	(%rax), %rax
	movq	(%rbx), %rbx
	movq	(%rsi), %rsi
	movq	(%r12), %r12
	movq	(%r13), %r13
	movq	(%r9), %r9
	movq	(%r10), %r10
	movq	(%r11), %r11
	movq	(%r14), %r14
	movq	(%r8), %r8
	movq	(%r15), %r15
	movq	(%rdi), %rdi
	movq	(%rcx), %rcx
	movq	(%rdx), %rdx
	movq	(%rax), %rax
	movq	(%rbx), %rbx
	movq	(%rsi), %rsi
	movq	(%r12), %r12
	movq	(%r13), %r13
	movq	(%r9), %r9
	movq	(%r10), %r10
	movq	(%r11), %r11
	movq	(%r14), %r14
	movq	(%r8), %r8
	movq	(%r15), %r15
	movq	(%rdi), %rdi
	movq	(%rcx), %rcx
	movq	(%rdx), %rdx
	movq	(%rax), %rax
	movq	(%rbx), %rbx
	movq	(%rsi), %rsi
	movq	(%r12), %r12
	movq	(%r13), %r13
	movq	(%r9), %r9
	movq	(%r10), %r10
	movq	(%r11), %r11
	movq	(%r14), %r14
	movq	(%r8), %r8
	movq	(%r15), %r15
	movq	(%rdi), %rdi
	movq	(%rcx), %rcx
	movq	(%rdx), %rdx
	movq	(%rax), %rax
	movq	(%rbx), %rbx
	movq	(%rsi), %rsi
	movq	(%r12), %r12
	movq	(%r13), %r13
	movq	(%r9), %r9
	movq	(%r10), %r10
	movq	(%r11), %r11
	movq	(%r14), %r14
	movq	(%r8), %r8
	movq	(%r15), %r15
	movq	(%rdi), %rdi
	movq	(%rcx), %rcx
	movq	(%rdx), %rdx
	movq	(%rax), %rax
	movq	(%rbx), %rbx
	movq	(%rsi), %rsi
	movq	(%r12), %r12
	movq	(%r13), %r13
	movq	(%r9), %r9
	movq	(%r10), %r10
	movq	(%r11), %r11
	movq	(%r14), %r14
	movq	(%r8), %r8
	movq	(%r15), %r15
	movq	(%rdi), %rdi
	movq	(%rcx), %rcx
	movq	(%rdx), %rdx
	movq	(%rax), %rax
	movq	(%rbx), %rbx
	movq	(%rsi), %rsi
	movq	(%r12), %r12
	movq	(%r13), %r13
	movq	(%r9), %r9
	movq	(%r10), %r10
	movq	(%r11), %r11
	movq	(%r14), %r14
	movq	(%r8), %r8
	movq	(%r15), %r15
	movq	(%rdi), %rdi
	movq	(%rcx), %rcx
	movq	(%rdx), %rdx
	movq	(%rax), %rax
	movq	(%rbx), %rbx
	movq	(%rsi), %rsi
	movq	(%r12), %r12
	movq	(%r13), %r13
	movq	(%r9), %r9
	movq	(%r10), %r10
	movq	(%r11), %r11
	movq	(%r14), %r14
	movq	(%r8), %r8
	movq	(%r15), %r15
	movq	(%rdi), %rdi
	movq	(%rcx), %rcx
	movq	(%rdx), %rdx
	movq	(%rax), %rax
	movq	(%rbx), %rbx
	movq	(%rsi), %rsi
	movq	(%r12), %r12
	movq	(%r13), %r13
	movq	(%r9), %r9
	movq	(%r10), %r10
	movq	(%r11), %r11
	movq	(%r14), %r14
	movq	(%r8), %r8
	movq	(%r15), %r15
	movq	(%rdi), %rdi
	movq	(%rcx), %rcx
	movq	(%rdx), %rdx
	movq	(%rax), %rax
	movq	(%rbx), %rbx
	movq	(%rsi), %rsi
	movq	(%r12), %r12
	movq	(%r13), %r13
	movq	(%r9), %r9
	movq	(%r10), %r10
	movq	(%r11), %r11
	movq	(%r14), %r14
	movq	(%r8), %r8
	movq	(%r15), %r15
	movq	(%rdi), %rdi
	movq	(%rcx), %rcx
	movq	(%rdx), %rdx
	movq	(%rax), %rax
	movq	(%rbx), %rbx
	movq	(%rsi), %rsi
	movq	(%r12), %r12
	movq	(%r13), %r13
	movq	(%r9), %r9
	movq	(%r10), %r10
	movq	(%r11), %r11
	movq	(%r14), %r14
	movq	(%r8), %r8
	movq	(%r15), %r15
	movq	(%rdi), %rdi
	movq	(%rcx), %rcx
	movq	(%rdx), %rdx
	movq	(%rax), %rax
	movq	(%rbx), %rbx
	movq	(%rsi), %rsi
	movq	(%r12), %r12
	movq	(%r13), %r13
	movq	(%r9), %r9
	movq	(%r10), %r10
	movq	(%r11), %r11
	movq	(%r14), %r14
	movq	(%r8), %r8
	movq	(%r15), %r15
	movq	(%rdi), %rdi
	movq	(%rcx), %rcx
	movq	(%rdx), %rdx
	movq	(%rax), %rax
	movq	(%rbx), %rbx
	movq	(%rsi), %rsi
	movq	(%r12), %r12
	movq	(%r13), %r13
	movq	(%r9), %r9
	movq	(%r10), %r10
	movq	(%r11), %r11
	movq	(%r14), %r14
	movq	(%r8), %r8
	movq	(%r15), %r15
	movq	(%rdi), %rdi
	movq	(%rcx), %rcx
	movq	(%rdx), %rdx
	movq	(%rax), %rax
	movq	(%rbx), %rbx
	movq	(%rsi), %rsi
	movq	(%r12), %r12
	movq	(%r13), %r13
	movq	(%r9), %r9
	movq	(%r10), %r10
	movq	(%r11), %r11
	movq	(%r14), %r14
	movq	(%r8), %r8
	movq	(%r15), %r15
	movq	(%rdi), %rdi
	movq	(%rcx), %rcx
	movq	(%rdx), %rdx
	movq	(%rax), %rax
	movq	(%rbx), %rbx
	movq	(%rsi), %rsi
	movq	(%r12), %r12
	movq	(%r13), %r13
	movq	(%r9), %r9
	movq	(%r10), %r10
	movq	(%r11), %r11
	movq	(%r14), %r14
	movq	(%r8), %r8
	movq	(%r15), %r15
	movq	(%rdi), %rdi
	movq	(%rcx), %rcx
	movq	(%rdx), %rdx
	movq	(%rax), %rax
	movq	(%rbx), %rbx
	movq	(%rsi), %rsi
	movq	(%r12), %r12
	movq	(%r13), %r13
	movq	(%r9), %r9
	movq	(%r10), %r10
	movq	(%r11), %r11
	movq	(%r14), %r14
	movq	(%r8), %r8
	movq	(%r15), %r15
	movq	(%rdi), %rdi
	movq	(%rcx), %rcx
	movq	(%rdx), %rdx
	movq	(%rax), %rax
	movq	(%rbx), %rbx
	movq	(%rsi), %rsi
	movq	(%r12), %r12
	movq	(%r13), %r13
	movq	(%r9), %r9
	movq	(%r10), %r10
	movq	(%r11), %r11
	movq	(%r14), %r14
	movq	(%r8), %r8
	movq	(%r15), %r15
	movq	(%rdi), %rdi
	movq	(%rcx), %rcx
	movq	(%rdx), %rdx
	movq	(%rax), %rax
	movq	(%rbx), %rbx
	movq	(%rsi), %rsi
	movq	(%r12), %r12
	movq	(%r13), %r13
	movq	(%r9), %r9
	movq	(%r10), %r10
	movq	(%r11), %r11
	movq	(%r14), %r14
	movq	(%r8), %r8
	movq	(%r15), %r15
	movq	(%rdi), %rdi
	movq	(%rcx), %rcx
	movq	(%rdx), %rdx
	movq	(%rax), %rax
	movq	(%rbx), %rbx
	movq	(%rsi), %rsi
	movq	(%r12), %r12
	movq	(%r13), %r13
	movq	(%r9), %r9
	movq	(%r10), %r10
	movq	(%r11), %r11
	movq	(%r14), %r14
	movq	(%r8), %r8
	movq	(%r15), %r15
	movq	(%rdi), %rdi
	movq	(%rcx), %rcx
	movq	(%rdx), %rdx
	movq	(%rax), %rax
	movq	(%rbx), %rbx
	movq	(%rsi), %rsi
	movq	(%r12), %r12
	movq	(%r13), %r13
	movq	(%r9), %r9
	movq	(%r10), %r10
	movq	(%r11), %r11
	movq	(%r14), %r14
	movq	(%r8), %r8
	movq	(%r15), %r15
	movq	(%rdi), %rdi
	movq	(%rcx), %rcx
	movq	(%rdx), %rdx
	movq	(%rax), %rax
	movq	(%rbx), %rbx
	movq	(%rsi), %rsi
	movq	(%r12), %r12
	movq	(%r13), %r13
	movq	(%r9), %r9
	movq	(%r10), %r10
	movq	(%r11), %r11
	movq	(%r14), %r14
	movq	(%r8), %r8
	movq	(%r15), %r15
	movq	(%rdi), %rdi
	movq	(%rcx), %rcx
	movq	(%rdx), %rdx
	movq	(%rax), %rax
	movq	(%rbx), %rbx
	movq	(%rsi), %rsi
	movq	(%r12), %r12
	movq	(%r13), %r13
	movq	(%r9), %r9
	movq	(%r10), %r10
	movq	(%r11), %r11
	movq	(%r14), %r14
	movq	(%r8), %r8
	movq	(%r15), %r15
	movq	(%rdi), %rdi
	movq	(%rcx), %rcx
	movq	(%rdx), %rdx
	movq	(%rax), %rax
	movq	(%rbx), %rbx
	movq	(%rsi), %rsi
	movq	(%r12), %r12
	movq	(%r13), %r13
	movq	(%r9), %r9
	movq	(%r10), %r10
	movq	(%r11), %r11
	movq	(%r14), %r14
	movq	(%r8), %r8
	movq	(%r15), %r15
	movq	(%rdi), %rdi
	movq	(%rcx), %rcx
	movq	(%rdx), %rdx
	movq	(%rax), %rax
	movq	(%rbx), %rbx
	movq	(%rsi), %rsi
	movq	(%r12), %r12
	movq	(%r13), %r13
	movq	(%r9), %r9
	movq	(%r10), %r10
	movq	(%r11), %r11
	movq	(%r14), %r14
	movq	(%r8), %r8
	movq	(%r15), %r15
	movq	(%rdi), %rdi
	movq	(%rcx), %rcx
	movq	(%rdx), %rdx
	movq	(%rax), %rax
	movq	(%rbx), %rbx
	movq	(%rsi), %rsi
	movq	(%r12), %r12
	movq	(%r13), %r13
	movq	(%r9), %r9
	movq	(%r10), %r10
	movq	(%r11), %r11
	movq	(%r14), %r14
	movq	(%r8), %r8
	movq	(%r15), %r15
	movq	(%rdi), %rdi
	movq	(%rcx), %rcx
	movq	(%rdx), %rdx
	movq	(%rax), %rax
	movq	(%rbx), %rbx
	movq	(%rsi), %rsi
	movq	(%r12), %r12
	movq	(%r13), %r13
	movq	(%r9), %r9
	movq	(%r10), %r10
	movq	(%r11), %r11
	movq	(%r14), %r14
	movq	(%r8), %r8
	movq	(%r15), %r15
	movq	(%rdi), %rdi
	movq	(%rcx), %rcx
	movq	(%rdx), %rdx
	movq	(%rax), %rax
	movq	(%rbx), %rbx
	movq	(%rsi), %rsi
	movq	(%r12), %r12
	movq	(%r13), %r13
	movq	(%r9), %r9
	movq	(%r10), %r10
	movq	(%r11), %r11
	movq	(%r14), %r14
	movq	(%r8), %r8
	movq	(%r15), %r15
	movq	(%rdi), %rdi
	movq	(%rcx), %rcx
	movq	(%rdx), %rdx
	movq	(%rax), %rax
	movq	(%rbx), %rbx
	movq	(%rsi), %rsi
	movq	(%r12), %r12
	movq	(%r13), %r13
	movq	(%r9), %r9
	movq	(%r10), %r10
	movq	(%r11), %r11
	movq	(%r14), %r14
	movq	(%r8), %r8
	movq	(%r15), %r15
	movq	(%rdi), %rdi
	movq	(%rcx), %rcx
	movq	(%rdx), %rdx
	movq	(%rax), %rax
	movq	(%rbx), %rbx
	movq	(%rsi), %rsi
	movq	(%r12), %r12
	movq	(%r13), %r13
	movq	(%r9), %r9
	movq	(%r10), %r10
	movq	(%r11), %r11
	movq	(%r14), %r14
	movq	(%r8), %r8
	movq	(%r15), %r15
	movq	(%rdi), %rdi
	movq	(%rcx), %rcx
	movq	(%rdx), %rdx
	movq	(%rax), %rax
	movq	(%rbx), %rbx
	movq	(%rsi), %rsi
	movq	(%r12), %r12
	movq	(%r13), %r13
	movq	(%r9), %r9
	movq	(%r10), %r10
	movq	(%r11), %r11
	movq	(%r14), %r14
	movq	(%r8), %r8
	movq	(%r15), %r15
	movq	(%rdi), %rdi
	movq	(%rcx), %rcx
	movq	(%rdx), %rdx
	movq	(%rax), %rax
	movq	(%rbx), %rbx
	movq	(%rsi), %rsi
	movq	(%r12), %r12
	movq	(%r13), %r13
	movq	(%r9), %r9
	movq	(%r10), %r10
	movq	(%r11), %r11
	movq	(%r14), %r14
	movq	(%r8), %r8
	movq	(%r15), %r15
	movq	(%rdi), %rdi
	movq	(%rcx), %rcx
	movq	(%rdx), %rdx
	movq	(%rax), %rax
	movq	(%rbx), %rbx
	movq	(%rsi), %rsi
	movq	(%r12), %r12
	movq	(%r13), %r13
	movq	(%r9), %r9
	movq	(%r10), %r10
	movq	(%r11), %r11
	movq	(%r14), %r14
	movq	(%r8), %r8
	movq	(%r15), %r15
	movq	(%rdi), %rdi
	movq	(%rcx), %rcx
	movq	(%rdx), %rdx
	movq	(%rax), %rax
	movq	(%rbx), %rbx
	movq	(%rsi), %rsi
	movq	(%r12), %r12
	movq	(%r13), %r13
	movq	(%r9), %r9
	movq	(%r10), %r10
	movq	(%r11), %r11
	movq	(%r14), %r14
	movq	(%r8), %r8
	movq	(%r15), %r15
	movq	(%rdi), %rdi
	movq	(%rcx), %rcx
	movq	(%rdx), %rdx
	movq	(%rax), %rax
	movq	(%rbx), %rbx
	movq	(%rsi), %rsi
	movq	(%r12), %r12
	movq	(%r13), %r13
	movq	(%r9), %r9
	movq	(%r10), %r10
	movq	(%r11), %r11
	movq	(%r14), %r14
	movq	(%r8), %r8
	movq	(%r15), %r15
	movq	(%rdi), %rdi
	movq	(%rcx), %rcx
	movq	(%rdx), %rdx
	movq	(%rax), %rax
	movq	(%rbx), %rbx
	movq	(%rsi), %rsi
	movq	(%r12), %r12
	movq	(%r13), %r13
	movq	(%r9), %r9
	movq	(%r10), %r10
	movq	(%r11), %r11
	movq	(%r14), %r14
	movq	(%r8), %r8
	movq	(%r15), %r15
	movq	(%rdi), %rdi
	movq	(%rcx), %rcx
	movq	(%rdx), %rdx
	movq	(%rax), %rax
	movq	(%rbx), %rbx
	movq	(%rsi), %rsi
	movq	(%r12), %r12
	movq	(%r13), %r13
	movq	(%r9), %r9
	movq	(%r10), %r10
	movq	(%r11), %r11
	movq	(%r14), %r14
	movq	(%r8), %r8
	movq	(%r15), %r15
	movq	(%rdi), %rdi
	movq	(%rcx), %rcx
	movq	(%rdx), %rdx
	movq	(%rax), %rax
	movq	(%rbx), %rbx
	movq	(%rsi), %rsi
	movq	(%r12), %r12
	movq	(%r13), %r13
	movq	(%r9), %r9
	movq	(%r10), %r10
	movq	(%r11), %r11
	movq	(%r14), %r14
	movq	(%r8), %r8
	movq	(%r15), %r15
	movq	(%rdi), %rdi
	movq	(%rcx), %rcx
	movq	(%rdx), %rdx
	movq	(%rax), %rax
	movq	(%rbx), %rbx
	movq	(%rsi), %rsi
	movq	(%r12), %r12
	movq	(%r13), %r13
	movq	(%r9), %r9
	movq	(%r10), %r10
	movq	(%r11), %r11
	movq	(%r14), %r14
	movq	(%r8), %r8
	movq	(%r15), %r15
	movq	(%rdi), %rdi
	movq	(%rcx), %rcx
	movq	(%rdx), %rdx
	movq	(%rax), %rax
	movq	(%rbx), %rbx
	movq	(%rsi), %rsi
	movq	(%r12), %r12
	movq	(%r13), %r13
	movq	(%r9), %r9
	movq	(%r10), %r10
	movq	(%r11), %r11
	movq	(%r14), %r14
	movq	(%r8), %r8
	movq	(%r15), %r15
	movq	(%rdi), %rdi
	movq	(%rcx), %rcx
	movq	(%rdx), %rdx
	movq	(%rax), %rax
	movq	(%rbx), %rbx
	movq	(%rsi), %rsi
	movq	(%r12), %r12
	movq	(%r13), %r13
	movq	(%r9), %r9
	movq	(%r10), %r10
	movq	(%r11), %r11
	movq	(%r14), %r14
	movq	(%r8), %r8
	movq	(%r15), %r15
	movq	(%rdi), %rdi
	movq	(%rcx), %rcx
	movq	(%rdx), %rdx
	movq	(%rax), %rax
	movq	(%rbx), %rbx
	movq	(%rsi), %rsi
	movq	(%r12), %r12
	movq	(%r13), %r13
	movq	(%r9), %r9
	movq	(%r10), %r10
	movq	(%r11), %r11
	movq	(%r14), %r14
	movq	(%r8), %r8
	movq	(%r15), %r15
	movq	(%rdi), %rdi
	movq	(%rcx), %rcx
	movq	(%rdx), %rdx
	movq	(%rax), %rax
	movq	(%rbx), %rbx
	movq	(%rsi), %rsi
	movq	(%r12), %r12
	movq	(%r13), %r13
	movq	(%r9), %r9
	movq	(%r10), %r10
	movq	(%r11), %r11
	movq	(%r14), %r14
	movq	(%r8), %r8
	movq	(%r15), %r15
	movq	(%rdi), %rdi
	movq	(%rcx), %rcx
	movq	(%rdx), %rdx
	movq	(%rax), %rax
	movq	(%rbx), %rbx
	movq	(%rsi), %rsi
	movq	(%r12), %r12
	movq	(%r13), %r13
	movq	(%r9), %r9
	movq	(%r10), %r10
	movq	(%r11), %r11
	movq	(%r14), %r14
	movq	(%r8), %r8
	movq	(%r15), %r15
	movq	(%rdi), %rdi
	movq	(%rcx), %rcx
	movq	(%rdx), %rdx
	movq	(%rax), %rax
	movq	(%rbx), %rbx
	movq	(%rsi), %rsi
	movq	(%r12), %r12
	movq	(%r13), %r13
	movq	(%r9), %r9
	movq	(%r10), %r10
	movq	(%r11), %r11
	movq	(%r14), %r14
	movq	(%r8), %r8
	movq	(%r15), %r15
	movq	(%rdi), %rdi
	movq	(%rcx), %rcx
	movq	(%rdx), %rdx
	movq	(%rax), %rax
	movq	(%rbx), %rbx
	movq	(%rsi), %rsi
	movq	(%r12), %r12
	movq	(%r13), %r13
	movq	(%r9), %r9
	movq	(%r10), %r10
	movq	(%r11), %r11
	movq	(%r14), %r14
	movq	(%r8), %r8
	movq	(%r15), %r15
	movq	(%rdi), %rdi
	movq	(%rcx), %rcx
	movq	(%rdx), %rdx
	movq	(%rax), %rax
	movq	(%rbx), %rbx
	movq	(%rsi), %rsi
	movq	(%r12), %r12
	movq	(%r13), %r13
	movq	(%r9), %r9
	movq	(%r10), %r10
	movq	(%r11), %r11
	movq	(%r14), %r14
	movq	(%r8), %r8
	movq	(%r15), %r15
	movq	(%rdi), %rdi
	movq	(%rcx), %rcx
	movq	(%rdx), %rdx
	movq	(%rax), %rax
	movq	(%rbx), %rbx
	movq	(%rsi), %rsi
	movq	(%r12), %r12
	movq	(%r13), %r13
	movq	(%r9), %r9
	movq	(%r10), %r10
	movq	(%r11), %r11
	movq	(%r14), %r14
	movq	(%r8), %r8
	movq	(%r15), %r15
	movq	(%rdi), %rdi
	movq	(%rcx), %rcx
	movq	(%rdx), %rdx
	movq	(%rax), %rax
	movq	(%rbx), %rbx
	movq	(%rsi), %rsi
	movq	(%r12), %r12
	movq	(%r13), %r13
	movq	(%r9), %r9
	movq	(%r10), %r10
	movq	(%r11), %r11
	movq	(%r14), %r14
	movq	(%r8), %r8
	movq	(%r15), %r15
	movq	(%rdi), %rdi
	movq	(%rcx), %rcx
	movq	(%rdx), %rdx
	movq	(%rax), %rax
	movq	(%rbx), %rbx
	movq	(%rsi), %rsi
	movq	(%r12), %r12
	movq	(%r13), %r13
	movq	(%r9), %r9
	movq	(%r10), %r10
	movq	(%r11), %r11
	movq	(%r14), %r14
	movq	(%r8), %r8
	movq	(%r15), %r15
	movq	(%rdi), %rdi
	movq	(%rcx), %rcx
	movq	(%rdx), %rdx
	movq	(%rax), %rax
	movq	(%rbx), %rbx
	movq	(%rsi), %rsi
	movq	(%r12), %r12
	movq	(%r13), %r13
	movq	(%r9), %r9
	movq	(%r10), %r10
	movq	(%r11), %r11
	movq	(%r14), %r14
	movq	(%r8), %r8
	movq	(%r15), %r15
	movq	(%rdi), %rdi
	movq	(%rcx), %rcx
	movq	(%rdx), %rdx
	movq	(%rax), %rax
	movq	(%rbx), %rbx
	movq	(%rsi), %rsi
	movq	(%r12), %r12
	movq	(%r13), %r13
	movq	(%r9), %r9
	movq	(%r10), %r10
	movq	(%r11), %r11
	movq	(%r14), %r14
	movq	(%r8), %r8
	movq	(%r15), %r15
	movq	(%rdi), %rdi
	movq	(%rcx), %rcx
	movq	(%rdx), %rdx
	movq	(%rax), %rax
	movq	(%rbx), %rbx
	movq	(%rsi), %rsi
	movq	(%r12), %r12
	movq	(%r13), %r13
	movq	(%r9), %r9
	movq	(%r10), %r10
	movq	(%r11), %r11
	movq	(%r14), %r14
	movq	(%r8), %r8
	movq	(%r15), %r15
	movq	(%rdi), %rdi
	movq	(%rcx), %rcx
	movq	(%rdx), %rdx
	movq	(%rax), %rax
	movq	(%rbx), %rbx
	movq	(%rsi), %rsi
	movq	(%r12), %r12
	movq	(%r13), %r13
	movq	(%r9), %r9
	movq	(%r10), %r10
	movq	(%r11), %r11
	movq	(%r14), %r14
	movq	(%r8), %r8
	movq	(%r15), %r15
	movq	(%rdi), %rdi
	movq	(%rcx), %rcx
	movq	(%rdx), %rdx
	movq	(%rax), %rax
	movq	(%rbx), %rbx
	movq	(%rsi), %rsi
	movq	(%r12), %r12
	movq	(%r13), %r13
	movq	(%r9), %r9
	movq	(%r10), %r10
	movq	(%r11), %r11
	movq	(%r14), %r14
	movq	(%r8), %r8
	movq	(%r15), %r15
	movq	(%rdi), %rdi
	movq	(%rcx), %rcx
	movq	(%rdx), %rdx
	movq	(%rax), %rax
	movq	(%rbx), %rbx
	movq	(%rsi), %rsi
	movq	(%r12), %r12
	movq	(%r13), %r13
	movq	(%r9), %r9
	movq	(%r10), %r10
	movq	(%r11), %r11
	movq	(%r14), %r14
	movq	(%r8), %r8
	movq	(%r15), %r15
	movq	(%rdi), %rdi
	movq	(%rcx), %rcx
	movq	(%rdx), %rdx
	movq	(%rax), %rax
	movq	(%rbx), %rbx
	movq	(%rsi), %rsi
	movq	(%r12), %r12
	movq	(%r13), %r13
	movq	(%r9), %r9
	movq	(%r10), %r10
	movq	(%r11), %r11
	movq	(%r14), %r14
	movq	(%r8), %r8
	movq	(%r15), %r15
	movq	(%rdi), %rdi
	movq	(%rcx), %rcx
	movq	(%rdx), %rdx
	movq	(%rax), %rax
	movq	(%rbx), %rbx
	movq	(%rsi), %rsi
	movq	(%r12), %r12
	movq	(%r13), %r13
	movq	(%r9), %r9
	movq	(%r10), %r10
	movq	(%r11), %r11
	movq	(%r14), %r14
	movq	(%r8), %r8
	movq	(%r15), %r15
	movq	(%rdi), %rdi
	movq	(%rcx), %rcx
	movq	(%rdx), %rdx
	movq	(%rax), %rax
	movq	(%rbx), %rbx
	movq	(%rsi), %rsi
	movq	(%r12), %r12
	movq	(%r13), %r13
	movq	(%r9), %r9
	movq	(%r10), %r10
	movq	(%r11), %r11
	movq	(%r14), %r14
	movq	(%r8), %r8
	movq	(%r15), %r15
	movq	(%rdi), %rdi
	movq	(%rcx), %rcx
	movq	(%rdx), %rdx
	movq	(%rax), %rax
	movq	(%rbx), %rbx
	movq	(%rsi), %rsi
	movq	(%r12), %r12
	movq	(%r13), %r13
	movq	(%r9), %r9
	movq	(%r10), %r10
	movq	(%r11), %r11
	movq	(%r14), %r14
	movq	(%r8), %r8
	movq	(%r15), %r15
	movq	(%rdi), %rdi
	movq	(%rcx), %rcx
	movq	(%rdx), %rdx
	movq	(%rax), %rax
	movq	(%rbx), %rbx
	movq	(%rsi), %rsi
	movq	(%r12), %r12
	movq	(%r13), %r13
	movq	(%r9), %r9
	movq	(%r10), %r10
	movq	(%r11), %r11
	movq	(%r14), %r14
	movq	(%r8), %r8
	movq	(%r15), %r15
	movq	(%rdi), %rdi
	movq	(%rcx), %rcx
	movq	(%rdx), %rdx
	movq	(%rax), %rax
	movq	(%rbx), %rbx
	movq	(%rsi), %rsi
	movq	(%r12), %r12
	movq	(%r13), %r13
	movq	(%r9), %r9
	movq	(%r10), %r10
	movq	(%r11), %r11
	movq	(%r14), %r14
	movq	(%r8), %r8
	movq	(%r15), %r15
	movq	(%rdi), %rdi
	movq	(%rcx), %rcx
	movq	(%rdx), %rdx
	movq	(%rax), %rax
	movq	(%rbx), %rbx
	movq	(%rsi), %rsi
	movq	(%r12), %r12
	movq	(%r13), %r13
	movq	(%r9), %r9
	movq	(%r10), %r10
	movq	(%r11), %r11
	movq	(%r14), %r14
	movq	(%r8), %r8
	movq	(%r15), %r15
	movq	(%rdi), %rdi
	movq	(%rcx), %rcx
	movq	(%rdx), %rdx
	movq	(%rax), %rax
	movq	(%rbx), %rbx
	movq	(%rsi), %rsi
	movq	(%r12), %r12
	movq	(%r13), %r13
	movq	(%r9), %r9
	movq	(%r10), %r10
	movq	(%r11), %r11
	movq	(%r14), %r14
	movq	(%r8), %r8
	movq	(%r15), %r15
	movq	(%rdi), %rdi
	movq	(%rcx), %rcx
	movq	(%rdx), %rdx
	movq	(%rax), %rax
	movq	(%rbx), %rbx
	movq	(%rsi), %rsi
	movq	(%r12), %r12
	movq	(%r13), %r13
	movq	(%r9), %r9
	movq	(%r10), %r10
	movq	(%r11), %r11
	movq	(%r14), %r14
	movq	(%r8), %r8
	movq	(%r15), %r15
	movq	(%rdi), %rdi
	movq	(%rcx), %rcx
	movq	(%rdx), %rdx
	movq	(%rax), %rax
	movq	(%rbx), %rbx
	movq	(%rsi), %rsi
	movq	(%r12), %r12
	movq	(%r13), %r13
	movq	(%r9), %r9
	movq	(%r10), %r10
	movq	(%r11), %r11
	movq	(%r14), %r14
	movq	(%r8), %r8
	movq	(%r15), %r15
	movq	(%rdi), %rdi
	movq	(%rcx), %rcx
	movq	(%rdx), %rdx
	movq	(%rax), %rax
	movq	(%rbx), %rbx
	movq	(%rsi), %rsi
	movq	(%r12), %r12
	movq	(%r13), %r13
	movq	(%r9), %r9
	movq	(%r10), %r10
	movq	(%r11), %r11
	movq	(%r14), %r14
	movq	(%r8), %r8
	movq	(%r15), %r15
	movq	(%rdi), %rdi
	movq	(%rcx), %rcx
	movq	(%rdx), %rdx
	movq	(%rax), %rax
	movq	(%rbx), %rbx
	movq	(%rsi), %rsi
	movq	(%r12), %r12
	movq	(%r13), %r13
	movq	(%r9), %r9
	movq	(%r10), %r10
	movq	(%r11), %r11
	movq	(%r14), %r14
	movq	(%r8), %r8
	movq	(%r15), %r15
	movq	(%rdi), %rdi
	movq	(%rcx), %rcx
	movq	(%rdx), %rdx
	movq	(%rax), %rax
	movq	(%rbx), %rbx
	movq	(%rsi), %rsi
	movq	(%r12), %r12
	movq	(%r13), %r13
	movq	(%r9), %r9
	movq	(%r10), %r10
	movq	(%r11), %r11
	movq	(%r14), %r14
	movq	(%r8), %r8
	movq	(%r15), %r15
	movq	(%rdi), %rdi
	movq	(%rcx), %rcx
	movq	(%rdx), %rdx
	movq	(%rax), %rax
	movq	(%rbx), %rbx
	movq	(%rsi), %rsi
	movq	(%r12), %r12
	movq	(%r13), %r13
	movq	(%r9), %r9
	movq	(%r10), %r10
	movq	(%r11), %r11
	movq	(%r14), %r14
	movq	(%r8), %r8
	movq	(%r15), %r15
	movq	(%rdi), %rdi
	movq	(%rcx), %rcx
	movq	(%rdx), %rdx
	movq	(%rax), %rax
	movq	(%rbx), %rbx
	movq	(%rsi), %rsi
	movq	(%r12), %r12
	movq	(%r13), %r13
	movq	(%r9), %r9
	movq	(%r10), %r10
	movq	(%r11), %r11
	movq	(%r14), %r14
	movq	(%r8), %r8
	movq	(%r15), %r15
	movq	(%rdi), %rdi
	movq	(%rcx), %rcx
	movq	(%rdx), %rdx
	movq	(%rax), %rax
	movq	(%rbx), %rbx
	movq	(%rsi), %rsi
	movq	(%r12), %r12
	movq	(%r13), %r13
	movq	(%r9), %r9
	movq	(%r10), %r10
	movq	(%r11), %r11
	movq	(%r14), %r14
	movq	(%r8), %r8
	movq	(%r15), %r15
	movq	(%rdi), %rdi
	movq	(%rcx), %rcx
	movq	(%rdx), %rdx
	movq	(%rax), %rax
	movq	(%rbx), %rbx
	movq	(%rsi), %rsi
	movq	(%r12), %r12
	movq	(%r13), %r13
	movq	(%r9), %r9
	movq	(%r10), %r10
	movq	(%r11), %r11
	movq	(%r14), %r14
	movq	(%r8), %r8
	movq	(%r15), %r15
	movq	(%rdi), %rdi
	movq	(%rcx), %rcx
	movq	(%rdx), %rdx
	movq	(%rax), %rax
	movq	(%rbx), %rbx
	movq	(%rsi), %rsi
	movq	(%r12), %r12
	movq	(%r13), %r13
	movq	(%r9), %r9
	movq	(%r10), %r10
	movq	(%r11), %r11
	movq	(%r14), %r14
	movq	(%r8), %r8
	movq	(%r15), %r15
	movq	(%rdi), %rdi
	movq	(%rcx), %rcx
	movq	(%rdx), %rdx
	movq	(%rax), %rax
	movq	(%rbx), %rbx
	movq	(%rsi), %rsi
	movq	(%r12), %r12
	movq	(%r13), %r13
	movq	(%r9), %r9
	movq	(%r10), %r10
	movq	(%r11), %r11
	movq	(%r14), %r14
	movq	(%r8), %r8
	movq	(%r15), %r15
	movq	(%rdi), %rdi
	movq	(%rcx), %rcx
	movq	(%rdx), %rdx
	movq	(%rax), %rax
	movq	(%rbx), %rbx
	movq	(%rsi), %rsi
	movq	(%r12), %r12
	movq	(%r13), %r13
	movq	(%r9), %r9
	movq	(%r10), %r10
	movq	(%r11), %r11
	movq	(%r14), %r14
	movq	(%r8), %r8
	movq	(%r15), %r15
	movq	(%rdi), %rdi
	movq	(%rcx), %rcx
	movq	(%rdx), %rdx
	movq	(%rax), %rax
	movq	(%rbx), %rbx
	movq	(%rsi), %rsi
	movq	(%r12), %r12
	movq	(%r13), %r13
	movq	(%r9), %r9
	movq	(%r10), %r10
	movq	(%r11), %r11
	movq	(%r14), %r14
	movq	(%r8), %r8
	movq	(%r15), %r15
	movq	(%rdi), %rdi
	movq	(%rcx), %rcx
	movq	(%rdx), %rdx
	movq	(%rax), %rax
	movq	(%rbx), %rbx
	movq	(%rsi), %rsi
	movq	(%r12), %r12
	movq	(%r13), %r13
	movq	(%r9), %r9
	movq	(%r10), %r10
	movq	(%r11), %r11
	movq	(%r14), %r14
	movq	(%r8), %r8
	movq	(%r15), %r15
	movq	(%rdi), %rdi
	movq	(%rcx), %rcx
	movq	(%rdx), %rdx
	movq	(%rax), %rax
	movq	(%rbx), %rbx
	movq	(%rsi), %rsi
	movq	(%r12), %r12
	movq	(%r13), %r13
	movq	(%r9), %r9
	movq	(%r10), %r10
	movq	(%r11), %r11
	movq	(%r14), %r14
	movq	(%r8), %r8
	movq	(%r15), %r15
	movq	(%rdi), %rdi
	movq	(%rcx), %rcx
	movq	(%rdx), %rdx
	movq	(%rax), %rax
	movq	(%rbx), %rbx
	movq	(%rsi), %rsi
	movq	(%r12), %r12
	movq	(%r13), %r13
	movq	(%r9), %r9
	movq	(%r10), %r10
	movq	(%r11), %r11
	movq	(%r14), %r14
	movq	(%r8), %r8
	movq	(%r15), %r15
	movq	(%rdi), %rdi
	movq	(%rcx), %rcx
	movq	(%rdx), %rdx
	movq	(%rax), %rax
	movq	(%rbx), %rbx
	movq	(%rsi), %rsi
	movq	(%r12), %r12
	movq	(%r13), %r13
	movq	(%r9), %r9
	movq	(%r10), %r10
	movq	(%r11), %r11
	movq	(%r14), %r14
	movq	(%r8), %r8
	movq	(%r15), %r15
	movq	(%rdi), %rdi
	movq	(%rcx), %rcx
	movq	(%rdx), %rdx
	movq	(%rax), %rax
	movq	(%rbx), %rbx
	movq	(%rsi), %rsi
	movq	(%r12), %r12
	movq	(%r13), %r13
	movq	(%r9), %r9
	movq	(%r10), %r10
	movq	(%r11), %r11
	movq	(%r14), %r14
	movq	(%r8), %r8
	movq	(%r15), %r15
	movq	(%rdi), %rdi
	movq	(%rcx), %rcx
	movq	(%rdx), %rdx
	movq	(%rax), %rax
	movq	(%rbx), %rbx
	movq	(%rsi), %rsi
	movq	(%r12), %r12
	movq	(%r13), %r13
	movq	(%r9), %r9
	movq	(%r10), %r10
	movq	(%r11), %r11
	movq	(%r14), %r14
	movq	(%r8), %r8
	movq	(%r15), %r15
	movq	(%rdi), %rdi
	movq	(%rcx), %rcx
	movq	(%rdx), %rdx
	movq	(%rax), %rax
	movq	(%rbx), %rbx
	movq	(%rsi), %rsi
	movq	(%r12), %r12
	movq	(%r13), %r13
	movq	(%r9), %r9
	movq	(%r10), %r10
	movq	(%r11), %r11
	movq	(%r14), %r14
	movq	(%r8), %r8
	movq	(%r15), %r15
	movq	(%rdi), %rdi
	movq	(%rcx), %rcx
	movq	(%rdx), %rdx
	movq	(%rax), %rax
	movq	(%rbx), %rbx
	movq	(%rsi), %rsi
	movq	(%r12), %r12
	movq	(%r13), %r13
	movq	(%r9), %r9
	movq	(%r10), %r10
	movq	(%r11), %r11
	movq	(%r14), %r14
	movq	(%r8), %r8
	movq	(%r15), %r15
	movq	(%rdi), %rdi
	movq	(%rcx), %rcx
	movq	(%rdx), %rdx
	movq	(%rax), %rax
	movq	(%rbx), %rbx
	movq	(%rsi), %rsi
	movq	(%r12), %r12
	movq	(%r13), %r13
	movq	(%r9), %r9
	movq	(%r10), %r10
	movq	(%r11), %r11
	movq	(%r14), %r14
	movq	(%r8), %r8
	movq	(%r15), %r15
	movq	(%rdi), %rdi
	movq	(%rcx), %rcx
	movq	(%rdx), %rdx
	movq	(%rax), %rax
	movq	(%rbx), %rbx
	movq	(%rsi), %rsi
	movq	(%r12), %r12
	movq	(%r13), %r13
	movq	(%r9), %r9
	movq	(%r10), %r10
	movq	(%r11), %r11
	movq	(%r14), %r14
	movq	(%r8), %r8
	movq	(%r15), %r15
	movq	(%rdi), %rdi
	movq	(%rcx), %rcx
	movq	(%rdx), %rdx
	movq	(%rax), %rax
	movq	(%rbx), %rbx
	movq	(%rsi), %rsi
	movq	(%r12), %r12
	movq	(%r13), %r13
	movq	(%r9), %r9
	movq	(%r10), %r10
	movq	(%r11), %r11
	movq	(%r14), %r14
	movq	(%r8), %r8
	movq	(%r15), %r15
	movq	(%rdi), %rdi
	movq	(%rcx), %rcx
	movq	(%rdx), %rdx
	movq	(%rax), %rax
	movq	(%rbx), %rbx
	movq	(%rsi), %rsi
	movq	(%r12), %r12
	movq	(%r13), %r13
	movq	(%r9), %r9
	movq	(%r10), %r10
	movq	(%r11), %r11
	movq	(%r14), %r14
	movq	(%r8), %r8
	movq	(%r15), %r15
	movq	(%rdi), %rdi
	movq	(%rcx), %rcx
	movq	(%rdx), %rdx
	movq	(%rax), %rax
	movq	(%rbx), %rbx
	movq	(%rsi), %rsi
	movq	(%r12), %r12
	movq	(%r13), %r13
	movq	(%r9), %r9
	movq	(%r10), %r10
	movq	(%r11), %r11
	movq	(%r14), %r14
	movq	(%r8), %r8
	movq	(%r15), %r15
	movq	(%rdi), %rdi
	movq	(%rcx), %rcx
	movq	(%rdx), %rdx
	movq	(%rax), %rax
	movq	(%rbx), %rbx
	movq	(%rsi), %rsi
	movq	(%r12), %r12
	movq	(%r13), %r13
	movq	(%r9), %r9
	movq	(%r10), %r10
	movq	(%r11), %r11
	movq	(%r14), %r14
	movq	(%r8), %r8
	movq	(%r15), %r15
	movq	(%rdi), %rdi
	movq	(%rcx), %rcx
	movq	(%rdx), %rdx
	movq	(%rax), %rax
	movq	(%rbx), %rbx
	movq	(%rsi), %rsi
	movq	(%r12), %r12
	movq	(%r13), %r13
	movq	(%r9), %r9
	movq	(%r10), %r10
	movq	(%r11), %r11
	movq	(%r14), %r14
	movq	(%r8), %r8
	movq	(%r15), %r15
	movq	(%rdi), %rdi
	movq	(%rcx), %rcx
	movq	(%rdx), %rdx
	movq	(%rax), %rax
	movq	(%rbx), %rbx
	movq	(%rsi), %rsi
	movq	(%r12), %r12
	movq	(%r13), %r13
	movq	(%r9), %r9
	movq	(%r10), %r10
	movq	(%r11), %r11
	movq	(%r14), %r14
	movq	(%r8), %r8
	movq	(%r15), %r15
	movq	(%rdi), %rdi
	movq	(%rcx), %rcx
	movq	(%rdx), %rdx
	movq	(%rax), %rax
	movq	(%rbx), %rbx
	movq	(%rsi), %rsi
	movq	%rsi, -48(%rbp)         # 8-byte Spill
	movq	-56(%rbp), %rsi         # 8-byte Reload
	movq	(%r12), %r12
	movq	(%r13), %r13
	movq	(%r9), %r9
	movq	(%r10), %r10
	movq	(%r11), %r11
	movq	(%r14), %r14
	movq	(%r8), %r8
	movq	(%r15), %r15
	addq	$-1, %rsi
	jne	.LBB13_7
.LBB13_8:
	movq	%rdi, mem_benchmark_13.sp0(%rip)
	movq	%rcx, mem_benchmark_13.sp1(%rip)
	movq	%rdx, mem_benchmark_13.sp2(%rip)
	movq	%rax, mem_benchmark_13.sp3(%rip)
	movq	%rbx, mem_benchmark_13.sp4(%rip)
	movq	-48(%rbp), %rax         # 8-byte Reload
	movq	%rax, mem_benchmark_13.sp5(%rip)
	movq	%r12, mem_benchmark_13.sp6(%rip)
	movq	%r13, mem_benchmark_13.sp7(%rip)
	movq	%r9, mem_benchmark_13.sp8(%rip)
	movq	%r10, mem_benchmark_13.sp9(%rip)
	movq	%r11, mem_benchmark_13.sp10(%rip)
	movq	%r14, mem_benchmark_13.sp11(%rip)
	movq	%r8, mem_benchmark_13.sp12(%rip)
	movq	%r15, mem_benchmark_13.sp13(%rip)
	movq	-64(%rbp), %rax         # 8-byte Reload
	movq	(%rax), %rax
	movq	%rax, mem_benchmark_13.addr_save(%rip)
	movb	$1, mem_benchmark_rerun(%rip)
	popq	%rbx
	popq	%r12
	popq	%r13
	popq	%r14
	popq	%r15
	popq	%rbp
	.cfi_def_cfa %rsp, 8
	retq
.Lfunc_end13:
	.size	mem_benchmark_13, .Lfunc_end13-mem_benchmark_13
	.cfi_endproc
                                        # -- End function
	.globl	mem_benchmark_14        # -- Begin function mem_benchmark_14
	.p2align	4, 0x90
	.type	mem_benchmark_14,@function
mem_benchmark_14:                       # @mem_benchmark_14
	.cfi_startproc
# %bb.0:
	pushq	%rbp
	.cfi_def_cfa_offset 16
	.cfi_offset %rbp, -16
	movq	%rsp, %rbp
	.cfi_def_cfa_register %rbp
	pushq	%r15
	pushq	%r14
	pushq	%r13
	pushq	%r12
	pushq	%rbx
	.cfi_offset %rbx, -56
	.cfi_offset %r12, -48
	.cfi_offset %r13, -40
	.cfi_offset %r14, -32
	.cfi_offset %r15, -24
	cmpb	$1, mem_benchmark_rerun(%rip)
	jne	.LBB14_4
# %bb.1:
	movq	%rdi, -88(%rbp)         # 8-byte Spill
	movq	mem_benchmark_14.addr_save(%rip), %rcx
	leaq	16(%rsi), %rdx
	leaq	24(%rsi), %rax
	leaq	32(%rsi), %rdi
	movl	$mem_benchmark_14.sp0, %r10d
	cmpq	(%rsi), %rcx
	cmovneq	%rdx, %r10
	leaq	40(%rsi), %rbx
	movl	$mem_benchmark_14.sp1, %ecx
	cmovneq	%rax, %rcx
	movq	%rcx, -56(%rbp)         # 8-byte Spill
	leaq	48(%rsi), %rax
	movl	$mem_benchmark_14.sp2, %ecx
	cmovneq	%rdi, %rcx
	movq	%rcx, -72(%rbp)         # 8-byte Spill
	leaq	56(%rsi), %rcx
	movl	$mem_benchmark_14.sp3, %edx
	cmovneq	%rbx, %rdx
	movq	%rdx, -64(%rbp)         # 8-byte Spill
	leaq	64(%rsi), %rdx
	movl	$mem_benchmark_14.sp4, %r13d
	cmovneq	%rax, %r13
	movq	%rsi, %rdi
	leaq	72(%rsi), %r11
	movl	$mem_benchmark_14.sp5, %r15d
	cmovneq	%rcx, %r15
	leaq	80(%rsi), %rax
	movl	$mem_benchmark_14.sp6, %r12d
	cmovneq	%rdx, %r12
	leaq	88(%rsi), %rsi
	movl	$mem_benchmark_14.sp7, %r14d
	cmovneq	%r11, %r14
	leaq	96(%rdi), %r11
	movl	$mem_benchmark_14.sp8, %ecx
	cmovneq	%rax, %rcx
	leaq	104(%rdi), %r9
	movl	$mem_benchmark_14.sp9, %edx
	cmovneq	%rsi, %rdx
	movl	$mem_benchmark_14.sp10, %eax
	cmovneq	%r11, %rax
	movq	%rdi, %rsi
	movl	$mem_benchmark_14.sp11, %r8d
	cmovneq	%r9, %r8
	leaq	112(%rdi), %r9
	movl	$mem_benchmark_14.sp12, %r11d
	cmovneq	%r9, %r11
	leaq	120(%rdi), %r9
	movl	$mem_benchmark_14.sp13, %edi
	cmovneq	%r9, %rdi
	movq	(%r10), %r9
	movq	-56(%rbp), %rbx         # 8-byte Reload
	movq	(%rbx), %r10
	movq	%r10, -48(%rbp)         # 8-byte Spill
	movq	-72(%rbp), %rbx         # 8-byte Reload
	movq	(%rbx), %rbx
	movq	%rbx, -80(%rbp)         # 8-byte Spill
	movq	-64(%rbp), %rbx         # 8-byte Reload
	movq	(%rbx), %rbx
	movq	%rbx, -128(%rbp)        # 8-byte Spill
	movq	(%r13), %rbx
	movq	%rbx, -112(%rbp)        # 8-byte Spill
	movq	(%r15), %rbx
	movq	%rbx, -120(%rbp)        # 8-byte Spill
	movq	(%r12), %r13
	movq	(%r14), %rbx
	movq	%rbx, -104(%rbp)        # 8-byte Spill
	movq	(%rcx), %rcx
	movq	%rcx, -96(%rbp)         # 8-byte Spill
	movq	(%rdx), %rcx
	movq	%rcx, -56(%rbp)         # 8-byte Spill
	movq	(%rax), %rbx
	movq	(%r8), %r8
	movq	(%r11), %rax
	movq	%rax, -72(%rbp)         # 8-byte Spill
	movq	(%rdi), %rax
	movq	%rax, -64(%rbp)         # 8-byte Spill
	je	.LBB14_3
# %bb.2:
	movq	-88(%rbp), %rdi         # 8-byte Reload
	movq	-48(%rbp), %r10         # 8-byte Reload
	movq	-80(%rbp), %r11         # 8-byte Reload
	movq	-128(%rbp), %r14        # 8-byte Reload
	movq	-112(%rbp), %r15        # 8-byte Reload
	movq	-120(%rbp), %r12        # 8-byte Reload
	movq	-104(%rbp), %rcx        # 8-byte Reload
	movq	-96(%rbp), %rdx         # 8-byte Reload
	jmp	.LBB14_5
.LBB14_4:
	movq	16(%rsi), %r9
	movq	24(%rsi), %r10
	movq	32(%rsi), %r11
	movq	40(%rsi), %r14
	movq	48(%rsi), %r15
	movq	56(%rsi), %r12
	movq	64(%rsi), %r13
	movq	72(%rsi), %rcx
	movq	80(%rsi), %rdx
	movq	88(%rsi), %rax
	movq	%rax, -56(%rbp)         # 8-byte Spill
	movq	96(%rsi), %rbx
	movq	104(%rsi), %r8
	movq	112(%rsi), %rax
	movq	%rax, -72(%rbp)         # 8-byte Spill
	movq	120(%rsi), %rax
	movq	%rax, -64(%rbp)         # 8-byte Spill
.LBB14_5:
	leaq	128(%rsi), %rax
	jmp	.LBB14_6
.LBB14_3:
	movl	$mem_benchmark_14.sp14, %eax
	movq	-88(%rbp), %rdi         # 8-byte Reload
	movq	-48(%rbp), %r10         # 8-byte Reload
	movq	-80(%rbp), %r11         # 8-byte Reload
	movq	-128(%rbp), %r14        # 8-byte Reload
	movq	-112(%rbp), %r15        # 8-byte Reload
	movq	-120(%rbp), %r12        # 8-byte Reload
	movq	-104(%rbp), %rcx        # 8-byte Reload
	movq	-96(%rbp), %rdx         # 8-byte Reload
.LBB14_6:
	movq	(%rax), %rax
	testq	%rdi, %rdi
	movq	%rsi, -136(%rbp)        # 8-byte Spill
	movq	%rax, -48(%rbp)         # 8-byte Spill
	je	.LBB14_7
# %bb.8:
	movq	-72(%rbp), %rsi         # 8-byte Reload
	movq	-64(%rbp), %rax         # 8-byte Reload
	.p2align	4, 0x90
.LBB14_9:                               # =>This Inner Loop Header: Depth=1
	movq	%rdi, -88(%rbp)         # 8-byte Spill
	movq	(%r9), %r9
	movq	(%r10), %r10
	movq	(%r11), %r11
	movq	(%r14), %r14
	movq	(%r15), %r15
	movq	(%r12), %r12
	movq	(%r13), %r13
	movq	(%rcx), %rcx
	movq	(%rdx), %rdx
	movq	-56(%rbp), %rdi         # 8-byte Reload
	movq	(%rdi), %rdi
	movq	%rdi, -56(%rbp)         # 8-byte Spill
	movq	(%rbx), %rbx
	movq	(%r8), %r8
	movq	(%rsi), %rsi
	movq	(%rax), %rdi
	movq	-48(%rbp), %rax         # 8-byte Reload
	movq	(%rax), %rax
	movq	%rax, -48(%rbp)         # 8-byte Spill
	movq	(%r9), %r9
	movq	(%r10), %r10
	movq	(%r11), %r11
	movq	(%r14), %r14
	movq	(%r15), %r15
	movq	(%r12), %r12
	movq	(%r13), %r13
	movq	(%rcx), %rcx
	movq	(%rdx), %rdx
	movq	-56(%rbp), %rax         # 8-byte Reload
	movq	(%rax), %rax
	movq	%rax, -56(%rbp)         # 8-byte Spill
	movq	(%rbx), %rbx
	movq	(%r8), %r8
	movq	(%rsi), %rsi
	movq	(%rdi), %rdi
	movq	-48(%rbp), %rax         # 8-byte Reload
	movq	(%rax), %rax
	movq	%rax, -48(%rbp)         # 8-byte Spill
	movq	(%r9), %r9
	movq	(%r10), %r10
	movq	(%r11), %r11
	movq	(%r14), %r14
	movq	(%r15), %r15
	movq	(%r12), %r12
	movq	(%r13), %r13
	movq	(%rcx), %rcx
	movq	(%rdx), %rdx
	movq	-56(%rbp), %rax         # 8-byte Reload
	movq	(%rax), %rax
	movq	%rax, -56(%rbp)         # 8-byte Spill
	movq	(%rbx), %rbx
	movq	(%r8), %r8
	movq	(%rsi), %rsi
	movq	(%rdi), %rdi
	movq	-48(%rbp), %rax         # 8-byte Reload
	movq	(%rax), %rax
	movq	%rax, -48(%rbp)         # 8-byte Spill
	movq	(%r9), %r9
	movq	(%r10), %r10
	movq	(%r11), %r11
	movq	(%r14), %r14
	movq	(%r15), %r15
	movq	(%r12), %r12
	movq	(%r13), %r13
	movq	(%rcx), %rcx
	movq	(%rdx), %rdx
	movq	-56(%rbp), %rax         # 8-byte Reload
	movq	(%rax), %rax
	movq	%rax, -56(%rbp)         # 8-byte Spill
	movq	(%rbx), %rbx
	movq	(%r8), %r8
	movq	(%rsi), %rsi
	movq	(%rdi), %rdi
	movq	-48(%rbp), %rax         # 8-byte Reload
	movq	(%rax), %rax
	movq	%rax, -48(%rbp)         # 8-byte Spill
	movq	(%r9), %r9
	movq	(%r10), %r10
	movq	(%r11), %r11
	movq	(%r14), %r14
	movq	(%r15), %r15
	movq	(%r12), %r12
	movq	(%r13), %r13
	movq	(%rcx), %rcx
	movq	(%rdx), %rdx
	movq	-56(%rbp), %rax         # 8-byte Reload
	movq	(%rax), %rax
	movq	%rax, -56(%rbp)         # 8-byte Spill
	movq	(%rbx), %rbx
	movq	(%r8), %r8
	movq	(%rsi), %rsi
	movq	(%rdi), %rdi
	movq	-48(%rbp), %rax         # 8-byte Reload
	movq	(%rax), %rax
	movq	%rax, -48(%rbp)         # 8-byte Spill
	movq	(%r9), %r9
	movq	(%r10), %r10
	movq	(%r11), %r11
	movq	(%r14), %r14
	movq	(%r15), %r15
	movq	(%r12), %r12
	movq	(%r13), %r13
	movq	(%rcx), %rcx
	movq	(%rdx), %rdx
	movq	-56(%rbp), %rax         # 8-byte Reload
	movq	(%rax), %rax
	movq	%rax, -56(%rbp)         # 8-byte Spill
	movq	(%rbx), %rbx
	movq	(%r8), %r8
	movq	(%rsi), %rsi
	movq	(%rdi), %rdi
	movq	-48(%rbp), %rax         # 8-byte Reload
	movq	(%rax), %rax
	movq	%rax, -48(%rbp)         # 8-byte Spill
	movq	(%r9), %r9
	movq	(%r10), %r10
	movq	(%r11), %r11
	movq	(%r14), %r14
	movq	(%r15), %r15
	movq	(%r12), %r12
	movq	(%r13), %r13
	movq	(%rcx), %rcx
	movq	(%rdx), %rdx
	movq	-56(%rbp), %rax         # 8-byte Reload
	movq	(%rax), %rax
	movq	%rax, -56(%rbp)         # 8-byte Spill
	movq	(%rbx), %rbx
	movq	(%r8), %r8
	movq	(%rsi), %rsi
	movq	(%rdi), %rdi
	movq	-48(%rbp), %rax         # 8-byte Reload
	movq	(%rax), %rax
	movq	%rax, -48(%rbp)         # 8-byte Spill
	movq	(%r9), %r9
	movq	(%r10), %r10
	movq	(%r11), %r11
	movq	(%r14), %r14
	movq	(%r15), %r15
	movq	(%r12), %r12
	movq	(%r13), %r13
	movq	(%rcx), %rcx
	movq	(%rdx), %rdx
	movq	-56(%rbp), %rax         # 8-byte Reload
	movq	(%rax), %rax
	movq	%rax, -56(%rbp)         # 8-byte Spill
	movq	(%rbx), %rbx
	movq	(%r8), %r8
	movq	(%rsi), %rsi
	movq	(%rdi), %rdi
	movq	-48(%rbp), %rax         # 8-byte Reload
	movq	(%rax), %rax
	movq	%rax, -48(%rbp)         # 8-byte Spill
	movq	(%r9), %r9
	movq	(%r10), %r10
	movq	(%r11), %r11
	movq	(%r14), %r14
	movq	(%r15), %r15
	movq	(%r12), %r12
	movq	(%r13), %r13
	movq	(%rcx), %rcx
	movq	(%rdx), %rdx
	movq	-56(%rbp), %rax         # 8-byte Reload
	movq	(%rax), %rax
	movq	%rax, -56(%rbp)         # 8-byte Spill
	movq	(%rbx), %rbx
	movq	(%r8), %r8
	movq	(%rsi), %rsi
	movq	(%rdi), %rdi
	movq	-48(%rbp), %rax         # 8-byte Reload
	movq	(%rax), %rax
	movq	%rax, -48(%rbp)         # 8-byte Spill
	movq	(%r9), %r9
	movq	(%r10), %r10
	movq	(%r11), %r11
	movq	(%r14), %r14
	movq	(%r15), %r15
	movq	(%r12), %r12
	movq	(%r13), %r13
	movq	(%rcx), %rcx
	movq	(%rdx), %rdx
	movq	-56(%rbp), %rax         # 8-byte Reload
	movq	(%rax), %rax
	movq	%rax, -56(%rbp)         # 8-byte Spill
	movq	(%rbx), %rbx
	movq	(%r8), %r8
	movq	(%rsi), %rsi
	movq	(%rdi), %rdi
	movq	-48(%rbp), %rax         # 8-byte Reload
	movq	(%rax), %rax
	movq	%rax, -48(%rbp)         # 8-byte Spill
	movq	(%r9), %r9
	movq	(%r10), %r10
	movq	(%r11), %r11
	movq	(%r14), %r14
	movq	(%r15), %r15
	movq	(%r12), %r12
	movq	(%r13), %r13
	movq	(%rcx), %rcx
	movq	(%rdx), %rdx
	movq	-56(%rbp), %rax         # 8-byte Reload
	movq	(%rax), %rax
	movq	%rax, -56(%rbp)         # 8-byte Spill
	movq	(%rbx), %rbx
	movq	(%r8), %r8
	movq	(%rsi), %rsi
	movq	(%rdi), %rdi
	movq	-48(%rbp), %rax         # 8-byte Reload
	movq	(%rax), %rax
	movq	%rax, -48(%rbp)         # 8-byte Spill
	movq	(%r9), %r9
	movq	(%r10), %r10
	movq	(%r11), %r11
	movq	(%r14), %r14
	movq	(%r15), %r15
	movq	(%r12), %r12
	movq	(%r13), %r13
	movq	(%rcx), %rcx
	movq	(%rdx), %rdx
	movq	-56(%rbp), %rax         # 8-byte Reload
	movq	(%rax), %rax
	movq	%rax, -56(%rbp)         # 8-byte Spill
	movq	(%rbx), %rbx
	movq	(%r8), %r8
	movq	(%rsi), %rsi
	movq	(%rdi), %rdi
	movq	-48(%rbp), %rax         # 8-byte Reload
	movq	(%rax), %rax
	movq	%rax, -48(%rbp)         # 8-byte Spill
	movq	(%r9), %r9
	movq	(%r10), %r10
	movq	(%r11), %r11
	movq	(%r14), %r14
	movq	(%r15), %r15
	movq	(%r12), %r12
	movq	(%r13), %r13
	movq	(%rcx), %rcx
	movq	(%rdx), %rdx
	movq	-56(%rbp), %rax         # 8-byte Reload
	movq	(%rax), %rax
	movq	%rax, -56(%rbp)         # 8-byte Spill
	movq	(%rbx), %rbx
	movq	(%r8), %r8
	movq	(%rsi), %rsi
	movq	(%rdi), %rdi
	movq	-48(%rbp), %rax         # 8-byte Reload
	movq	(%rax), %rax
	movq	%rax, -48(%rbp)         # 8-byte Spill
	movq	(%r9), %r9
	movq	(%r10), %r10
	movq	(%r11), %r11
	movq	(%r14), %r14
	movq	(%r15), %r15
	movq	(%r12), %r12
	movq	(%r13), %r13
	movq	(%rcx), %rcx
	movq	(%rdx), %rdx
	movq	-56(%rbp), %rax         # 8-byte Reload
	movq	(%rax), %rax
	movq	%rax, -56(%rbp)         # 8-byte Spill
	movq	(%rbx), %rbx
	movq	(%r8), %r8
	movq	(%rsi), %rsi
	movq	(%rdi), %rdi
	movq	-48(%rbp), %rax         # 8-byte Reload
	movq	(%rax), %rax
	movq	%rax, -48(%rbp)         # 8-byte Spill
	movq	(%r9), %r9
	movq	(%r10), %r10
	movq	(%r11), %r11
	movq	(%r14), %r14
	movq	(%r15), %r15
	movq	(%r12), %r12
	movq	(%r13), %r13
	movq	(%rcx), %rcx
	movq	(%rdx), %rdx
	movq	-56(%rbp), %rax         # 8-byte Reload
	movq	(%rax), %rax
	movq	%rax, -56(%rbp)         # 8-byte Spill
	movq	(%rbx), %rbx
	movq	(%r8), %r8
	movq	(%rsi), %rsi
	movq	(%rdi), %rdi
	movq	-48(%rbp), %rax         # 8-byte Reload
	movq	(%rax), %rax
	movq	%rax, -48(%rbp)         # 8-byte Spill
	movq	(%r9), %r9
	movq	(%r10), %r10
	movq	(%r11), %r11
	movq	(%r14), %r14
	movq	(%r15), %r15
	movq	(%r12), %r12
	movq	(%r13), %r13
	movq	(%rcx), %rcx
	movq	(%rdx), %rdx
	movq	-56(%rbp), %rax         # 8-byte Reload
	movq	(%rax), %rax
	movq	%rax, -56(%rbp)         # 8-byte Spill
	movq	(%rbx), %rbx
	movq	(%r8), %r8
	movq	(%rsi), %rsi
	movq	(%rdi), %rdi
	movq	-48(%rbp), %rax         # 8-byte Reload
	movq	(%rax), %rax
	movq	%rax, -48(%rbp)         # 8-byte Spill
	movq	(%r9), %r9
	movq	(%r10), %r10
	movq	(%r11), %r11
	movq	(%r14), %r14
	movq	(%r15), %r15
	movq	(%r12), %r12
	movq	(%r13), %r13
	movq	(%rcx), %rcx
	movq	(%rdx), %rdx
	movq	-56(%rbp), %rax         # 8-byte Reload
	movq	(%rax), %rax
	movq	%rax, -56(%rbp)         # 8-byte Spill
	movq	(%rbx), %rbx
	movq	(%r8), %r8
	movq	(%rsi), %rsi
	movq	(%rdi), %rdi
	movq	-48(%rbp), %rax         # 8-byte Reload
	movq	(%rax), %rax
	movq	%rax, -48(%rbp)         # 8-byte Spill
	movq	(%r9), %r9
	movq	(%r10), %r10
	movq	(%r11), %r11
	movq	(%r14), %r14
	movq	(%r15), %r15
	movq	(%r12), %r12
	movq	(%r13), %r13
	movq	(%rcx), %rcx
	movq	(%rdx), %rdx
	movq	-56(%rbp), %rax         # 8-byte Reload
	movq	(%rax), %rax
	movq	%rax, -56(%rbp)         # 8-byte Spill
	movq	(%rbx), %rbx
	movq	(%r8), %r8
	movq	(%rsi), %rsi
	movq	(%rdi), %rdi
	movq	-48(%rbp), %rax         # 8-byte Reload
	movq	(%rax), %rax
	movq	%rax, -48(%rbp)         # 8-byte Spill
	movq	(%r9), %r9
	movq	(%r10), %r10
	movq	(%r11), %r11
	movq	(%r14), %r14
	movq	(%r15), %r15
	movq	(%r12), %r12
	movq	(%r13), %r13
	movq	(%rcx), %rcx
	movq	(%rdx), %rdx
	movq	-56(%rbp), %rax         # 8-byte Reload
	movq	(%rax), %rax
	movq	%rax, -56(%rbp)         # 8-byte Spill
	movq	(%rbx), %rbx
	movq	(%r8), %r8
	movq	(%rsi), %rsi
	movq	(%rdi), %rdi
	movq	-48(%rbp), %rax         # 8-byte Reload
	movq	(%rax), %rax
	movq	%rax, -48(%rbp)         # 8-byte Spill
	movq	(%r9), %r9
	movq	(%r10), %r10
	movq	(%r11), %r11
	movq	(%r14), %r14
	movq	(%r15), %r15
	movq	(%r12), %r12
	movq	(%r13), %r13
	movq	(%rcx), %rcx
	movq	(%rdx), %rdx
	movq	-56(%rbp), %rax         # 8-byte Reload
	movq	(%rax), %rax
	movq	%rax, -56(%rbp)         # 8-byte Spill
	movq	(%rbx), %rbx
	movq	(%r8), %r8
	movq	(%rsi), %rsi
	movq	(%rdi), %rdi
	movq	-48(%rbp), %rax         # 8-byte Reload
	movq	(%rax), %rax
	movq	%rax, -48(%rbp)         # 8-byte Spill
	movq	(%r9), %r9
	movq	(%r10), %r10
	movq	(%r11), %r11
	movq	(%r14), %r14
	movq	(%r15), %r15
	movq	(%r12), %r12
	movq	(%r13), %r13
	movq	(%rcx), %rcx
	movq	(%rdx), %rdx
	movq	-56(%rbp), %rax         # 8-byte Reload
	movq	(%rax), %rax
	movq	%rax, -56(%rbp)         # 8-byte Spill
	movq	(%rbx), %rbx
	movq	(%r8), %r8
	movq	(%rsi), %rsi
	movq	(%rdi), %rdi
	movq	-48(%rbp), %rax         # 8-byte Reload
	movq	(%rax), %rax
	movq	%rax, -48(%rbp)         # 8-byte Spill
	movq	(%r9), %r9
	movq	(%r10), %r10
	movq	(%r11), %r11
	movq	(%r14), %r14
	movq	(%r15), %r15
	movq	(%r12), %r12
	movq	(%r13), %r13
	movq	(%rcx), %rcx
	movq	(%rdx), %rdx
	movq	-56(%rbp), %rax         # 8-byte Reload
	movq	(%rax), %rax
	movq	%rax, -56(%rbp)         # 8-byte Spill
	movq	(%rbx), %rbx
	movq	(%r8), %r8
	movq	(%rsi), %rsi
	movq	(%rdi), %rdi
	movq	-48(%rbp), %rax         # 8-byte Reload
	movq	(%rax), %rax
	movq	%rax, -48(%rbp)         # 8-byte Spill
	movq	(%r9), %r9
	movq	(%r10), %r10
	movq	(%r11), %r11
	movq	(%r14), %r14
	movq	(%r15), %r15
	movq	(%r12), %r12
	movq	(%r13), %r13
	movq	(%rcx), %rcx
	movq	(%rdx), %rdx
	movq	-56(%rbp), %rax         # 8-byte Reload
	movq	(%rax), %rax
	movq	%rax, -56(%rbp)         # 8-byte Spill
	movq	(%rbx), %rbx
	movq	(%r8), %r8
	movq	(%rsi), %rsi
	movq	(%rdi), %rdi
	movq	-48(%rbp), %rax         # 8-byte Reload
	movq	(%rax), %rax
	movq	%rax, -48(%rbp)         # 8-byte Spill
	movq	(%r9), %r9
	movq	(%r10), %r10
	movq	(%r11), %r11
	movq	(%r14), %r14
	movq	(%r15), %r15
	movq	(%r12), %r12
	movq	(%r13), %r13
	movq	(%rcx), %rcx
	movq	(%rdx), %rdx
	movq	-56(%rbp), %rax         # 8-byte Reload
	movq	(%rax), %rax
	movq	%rax, -56(%rbp)         # 8-byte Spill
	movq	(%rbx), %rbx
	movq	(%r8), %r8
	movq	(%rsi), %rsi
	movq	(%rdi), %rdi
	movq	-48(%rbp), %rax         # 8-byte Reload
	movq	(%rax), %rax
	movq	%rax, -48(%rbp)         # 8-byte Spill
	movq	(%r9), %r9
	movq	(%r10), %r10
	movq	(%r11), %r11
	movq	(%r14), %r14
	movq	(%r15), %r15
	movq	(%r12), %r12
	movq	(%r13), %r13
	movq	(%rcx), %rcx
	movq	(%rdx), %rdx
	movq	-56(%rbp), %rax         # 8-byte Reload
	movq	(%rax), %rax
	movq	%rax, -56(%rbp)         # 8-byte Spill
	movq	(%rbx), %rbx
	movq	(%r8), %r8
	movq	(%rsi), %rsi
	movq	(%rdi), %rdi
	movq	-48(%rbp), %rax         # 8-byte Reload
	movq	(%rax), %rax
	movq	%rax, -48(%rbp)         # 8-byte Spill
	movq	(%r9), %r9
	movq	(%r10), %r10
	movq	(%r11), %r11
	movq	(%r14), %r14
	movq	(%r15), %r15
	movq	(%r12), %r12
	movq	(%r13), %r13
	movq	(%rcx), %rcx
	movq	(%rdx), %rdx
	movq	-56(%rbp), %rax         # 8-byte Reload
	movq	(%rax), %rax
	movq	%rax, -56(%rbp)         # 8-byte Spill
	movq	(%rbx), %rbx
	movq	(%r8), %r8
	movq	(%rsi), %rsi
	movq	(%rdi), %rdi
	movq	-48(%rbp), %rax         # 8-byte Reload
	movq	(%rax), %rax
	movq	%rax, -48(%rbp)         # 8-byte Spill
	movq	(%r9), %r9
	movq	(%r10), %r10
	movq	(%r11), %r11
	movq	(%r14), %r14
	movq	(%r15), %r15
	movq	(%r12), %r12
	movq	(%r13), %r13
	movq	(%rcx), %rcx
	movq	(%rdx), %rdx
	movq	-56(%rbp), %rax         # 8-byte Reload
	movq	(%rax), %rax
	movq	%rax, -56(%rbp)         # 8-byte Spill
	movq	(%rbx), %rbx
	movq	(%r8), %r8
	movq	(%rsi), %rsi
	movq	(%rdi), %rdi
	movq	-48(%rbp), %rax         # 8-byte Reload
	movq	(%rax), %rax
	movq	%rax, -48(%rbp)         # 8-byte Spill
	movq	(%r9), %r9
	movq	(%r10), %r10
	movq	(%r11), %r11
	movq	(%r14), %r14
	movq	(%r15), %r15
	movq	(%r12), %r12
	movq	(%r13), %r13
	movq	(%rcx), %rcx
	movq	(%rdx), %rdx
	movq	-56(%rbp), %rax         # 8-byte Reload
	movq	(%rax), %rax
	movq	%rax, -56(%rbp)         # 8-byte Spill
	movq	(%rbx), %rbx
	movq	(%r8), %r8
	movq	(%rsi), %rsi
	movq	(%rdi), %rdi
	movq	-48(%rbp), %rax         # 8-byte Reload
	movq	(%rax), %rax
	movq	%rax, -48(%rbp)         # 8-byte Spill
	movq	(%r9), %r9
	movq	(%r10), %r10
	movq	(%r11), %r11
	movq	(%r14), %r14
	movq	(%r15), %r15
	movq	(%r12), %r12
	movq	(%r13), %r13
	movq	(%rcx), %rcx
	movq	(%rdx), %rdx
	movq	-56(%rbp), %rax         # 8-byte Reload
	movq	(%rax), %rax
	movq	%rax, -56(%rbp)         # 8-byte Spill
	movq	(%rbx), %rbx
	movq	(%r8), %r8
	movq	(%rsi), %rsi
	movq	(%rdi), %rdi
	movq	-48(%rbp), %rax         # 8-byte Reload
	movq	(%rax), %rax
	movq	%rax, -48(%rbp)         # 8-byte Spill
	movq	(%r9), %r9
	movq	(%r10), %r10
	movq	(%r11), %r11
	movq	(%r14), %r14
	movq	(%r15), %r15
	movq	(%r12), %r12
	movq	(%r13), %r13
	movq	(%rcx), %rcx
	movq	(%rdx), %rdx
	movq	-56(%rbp), %rax         # 8-byte Reload
	movq	(%rax), %rax
	movq	%rax, -56(%rbp)         # 8-byte Spill
	movq	(%rbx), %rbx
	movq	(%r8), %r8
	movq	(%rsi), %rsi
	movq	(%rdi), %rdi
	movq	-48(%rbp), %rax         # 8-byte Reload
	movq	(%rax), %rax
	movq	%rax, -48(%rbp)         # 8-byte Spill
	movq	(%r9), %r9
	movq	(%r10), %r10
	movq	(%r11), %r11
	movq	(%r14), %r14
	movq	(%r15), %r15
	movq	(%r12), %r12
	movq	(%r13), %r13
	movq	(%rcx), %rcx
	movq	(%rdx), %rdx
	movq	-56(%rbp), %rax         # 8-byte Reload
	movq	(%rax), %rax
	movq	%rax, -56(%rbp)         # 8-byte Spill
	movq	(%rbx), %rbx
	movq	(%r8), %r8
	movq	(%rsi), %rsi
	movq	(%rdi), %rdi
	movq	-48(%rbp), %rax         # 8-byte Reload
	movq	(%rax), %rax
	movq	%rax, -48(%rbp)         # 8-byte Spill
	movq	(%r9), %r9
	movq	(%r10), %r10
	movq	(%r11), %r11
	movq	(%r14), %r14
	movq	(%r15), %r15
	movq	(%r12), %r12
	movq	(%r13), %r13
	movq	(%rcx), %rcx
	movq	(%rdx), %rdx
	movq	-56(%rbp), %rax         # 8-byte Reload
	movq	(%rax), %rax
	movq	%rax, -56(%rbp)         # 8-byte Spill
	movq	(%rbx), %rbx
	movq	(%r8), %r8
	movq	(%rsi), %rsi
	movq	(%rdi), %rdi
	movq	-48(%rbp), %rax         # 8-byte Reload
	movq	(%rax), %rax
	movq	%rax, -48(%rbp)         # 8-byte Spill
	movq	(%r9), %r9
	movq	(%r10), %r10
	movq	(%r11), %r11
	movq	(%r14), %r14
	movq	(%r15), %r15
	movq	(%r12), %r12
	movq	(%r13), %r13
	movq	(%rcx), %rcx
	movq	(%rdx), %rdx
	movq	-56(%rbp), %rax         # 8-byte Reload
	movq	(%rax), %rax
	movq	%rax, -56(%rbp)         # 8-byte Spill
	movq	(%rbx), %rbx
	movq	(%r8), %r8
	movq	(%rsi), %rsi
	movq	(%rdi), %rdi
	movq	-48(%rbp), %rax         # 8-byte Reload
	movq	(%rax), %rax
	movq	%rax, -48(%rbp)         # 8-byte Spill
	movq	(%r9), %r9
	movq	(%r10), %r10
	movq	(%r11), %r11
	movq	(%r14), %r14
	movq	(%r15), %r15
	movq	(%r12), %r12
	movq	(%r13), %r13
	movq	(%rcx), %rcx
	movq	(%rdx), %rdx
	movq	-56(%rbp), %rax         # 8-byte Reload
	movq	(%rax), %rax
	movq	%rax, -56(%rbp)         # 8-byte Spill
	movq	(%rbx), %rbx
	movq	(%r8), %r8
	movq	(%rsi), %rsi
	movq	(%rdi), %rdi
	movq	-48(%rbp), %rax         # 8-byte Reload
	movq	(%rax), %rax
	movq	%rax, -48(%rbp)         # 8-byte Spill
	movq	(%r9), %r9
	movq	(%r10), %r10
	movq	(%r11), %r11
	movq	(%r14), %r14
	movq	(%r15), %r15
	movq	(%r12), %r12
	movq	(%r13), %r13
	movq	(%rcx), %rcx
	movq	(%rdx), %rdx
	movq	-56(%rbp), %rax         # 8-byte Reload
	movq	(%rax), %rax
	movq	%rax, -56(%rbp)         # 8-byte Spill
	movq	(%rbx), %rbx
	movq	(%r8), %r8
	movq	(%rsi), %rsi
	movq	(%rdi), %rdi
	movq	-48(%rbp), %rax         # 8-byte Reload
	movq	(%rax), %rax
	movq	%rax, -48(%rbp)         # 8-byte Spill
	movq	(%r9), %r9
	movq	(%r10), %r10
	movq	(%r11), %r11
	movq	(%r14), %r14
	movq	(%r15), %r15
	movq	(%r12), %r12
	movq	(%r13), %r13
	movq	(%rcx), %rcx
	movq	(%rdx), %rdx
	movq	-56(%rbp), %rax         # 8-byte Reload
	movq	(%rax), %rax
	movq	%rax, -56(%rbp)         # 8-byte Spill
	movq	(%rbx), %rbx
	movq	(%r8), %r8
	movq	(%rsi), %rsi
	movq	(%rdi), %rdi
	movq	-48(%rbp), %rax         # 8-byte Reload
	movq	(%rax), %rax
	movq	%rax, -48(%rbp)         # 8-byte Spill
	movq	(%r9), %r9
	movq	(%r10), %r10
	movq	(%r11), %r11
	movq	(%r14), %r14
	movq	(%r15), %r15
	movq	(%r12), %r12
	movq	(%r13), %r13
	movq	(%rcx), %rcx
	movq	(%rdx), %rdx
	movq	-56(%rbp), %rax         # 8-byte Reload
	movq	(%rax), %rax
	movq	%rax, -56(%rbp)         # 8-byte Spill
	movq	(%rbx), %rbx
	movq	(%r8), %r8
	movq	(%rsi), %rsi
	movq	(%rdi), %rdi
	movq	-48(%rbp), %rax         # 8-byte Reload
	movq	(%rax), %rax
	movq	%rax, -48(%rbp)         # 8-byte Spill
	movq	(%r9), %r9
	movq	(%r10), %r10
	movq	(%r11), %r11
	movq	(%r14), %r14
	movq	(%r15), %r15
	movq	(%r12), %r12
	movq	(%r13), %r13
	movq	(%rcx), %rcx
	movq	(%rdx), %rdx
	movq	-56(%rbp), %rax         # 8-byte Reload
	movq	(%rax), %rax
	movq	%rax, -56(%rbp)         # 8-byte Spill
	movq	(%rbx), %rbx
	movq	(%r8), %r8
	movq	(%rsi), %rsi
	movq	(%rdi), %rdi
	movq	-48(%rbp), %rax         # 8-byte Reload
